

Microchip MPLAB XC8 Assembler V2.31 build 20201012212115 
                                                                                               Thu Dec 17 15:40:42 2020

Microchip MPLAB XC8 C Compiler v2.31 (Free license) build 20201012212115 Og1 
     1                           	processor	16F877A
     2                           	pagewidth 120
     3                           	opt	flic
     4                           	psect	idataBANK0,global,class=CODE,delta=2,noexec
     5                           	psect	idataBANK1,global,class=CODE,delta=2,noexec
     6                           	psect	nvBANK0,global,class=BANK0,space=1,delta=1,noexec
     7                           	psect	cinit,global,class=CODE,merge=1,delta=2
     8                           	psect	dataBANK0,global,class=BANK0,space=1,delta=1,noexec
     9                           	psect	dataBANK1,global,class=BANK1,space=1,delta=1,noexec
    10                           	psect	inittext,global,class=CODE,delta=2
    11                           	psect	cstackCOMMON,global,class=COMMON,space=1,delta=1,noexec
    12                           	psect	cstackBANK0,global,class=BANK0,space=1,delta=1,noexec
    13                           	psect	maintext,global,class=CODE,split=1,delta=2
    14                           	psect	text1,local,class=CODE,merge=1,delta=2
    15                           	psect	text2,local,class=CODE,merge=1,delta=2
    16                           	psect	text3,local,class=CODE,merge=1,delta=2
    17                           	psect	text4,local,class=CODE,merge=1,delta=2,group=1
    18                           	psect	text5,local,class=CODE,merge=1,delta=2,group=1
    19                           	psect	text6,local,class=CODE,merge=1,delta=2,group=1
    20                           	psect	text7,local,class=CODE,merge=1,delta=2,group=1
    21                           	psect	text8,local,class=CODE,merge=1,delta=2,group=1
    22                           	psect	text9,local,class=CODE,merge=1,delta=2,group=1
    23                           	psect	text10,local,class=CODE,merge=1,delta=2,group=1
    24                           	psect	text11,local,class=CODE,merge=1,delta=2
    25                           	psect	config,global,abs,ovrld,class=CONFIG,space=4,delta=2,noexec
    26                           	dabs	1,0x7E,2
    27  0000                     
    28                           ; Version 2.20
    29                           ; Generated 12/02/2020 GMT
    30                           ; 
    31                           ; Copyright © 2020, Microchip Technology Inc. and its subsidiaries ("Microchip")
    32                           ; All rights reserved.
    33                           ; 
    34                           ; This software is developed by Microchip Technology Inc. and its subsidiaries ("Microch
      +                          ip").
    35                           ; 
    36                           ; Redistribution and use in source and binary forms, with or without modification, are
    37                           ; permitted provided that the following conditions are met:
    38                           ; 
    39                           ;     1. Redistributions of source code must retain the above copyright notice, this lis
      +                          t of
    40                           ;        conditions and the following disclaimer.
    41                           ; 
    42                           ;     2. Redistributions in binary form must reproduce the above copyright notice, this 
      +                          list
    43                           ;        of conditions and the following disclaimer in the documentation and/or other
    44                           ;        materials provided with the distribution.
    45                           ; 
    46                           ;     3. Microchip's name may not be used to endorse or promote products derived from th
      +                          is
    47                           ;        software without specific prior written permission.
    48                           ; 
    49                           ; THIS SOFTWARE IS PROVIDED BY MICROCHIP "AS IS" AND ANY EXPRESS OR IMPLIED WARRANTIES,
    50                           ; INCLUDING, BUT NOT LIMITED TO, THE IMPLIED WARRANTIES OF MERCHANTABILITY AND FITNESS F
      +                          OR
    51                           ; PURPOSE ARE DISCLAIMED.  IN NO EVENT SHALL MICROCHIP BE LIABLE FOR ANY DIRECT, INDIREC
      +                          T,
    52                           ; INCIDENTAL, SPECIAL, EXEMPLARY, OR CONSEQUENTIAL DAMAGES (INCLUDING BUT NOT LIMITED TO
    53                           ; PROCUREMENT OF SUBSTITUTE GOODS OR SERVICES; LOSS OF USE, DATA OR PROFITS; OR BUSINESS
    54                           ; INTERRUPTION) HOWSOEVER CAUSED AND ON ANY THEORY OF LIABILITY, WHETHER IN CONTRACT, ST
      +                          RICT
    55                           ; LIABILITY, OR TORT (INCLUDING NEGLIGENCE OR OTHERWISE) ARISING IN ANY WAY OUT OF THE U
      +                          SE OF
    56                           ; THIS SOFTWARE, EVEN IF ADVISED OF THE POSSIBILITY OF SUCH DAMAGE.
    57                           ; 
    58                           ; 
    59                           ; Code-generator required, PIC16F877A Definitions
    60                           ; 
    61                           ; SFR Addresses
    62  0000                     	;# 
    63  0001                     	;# 
    64  0002                     	;# 
    65  0003                     	;# 
    66  0004                     	;# 
    67  0005                     	;# 
    68  0006                     	;# 
    69  0007                     	;# 
    70  0008                     	;# 
    71  0009                     	;# 
    72  000A                     	;# 
    73  000B                     	;# 
    74  000C                     	;# 
    75  000D                     	;# 
    76  000E                     	;# 
    77  000E                     	;# 
    78  000F                     	;# 
    79  0010                     	;# 
    80  0011                     	;# 
    81  0012                     	;# 
    82  0013                     	;# 
    83  0014                     	;# 
    84  0015                     	;# 
    85  0015                     	;# 
    86  0016                     	;# 
    87  0017                     	;# 
    88  0018                     	;# 
    89  0019                     	;# 
    90  001A                     	;# 
    91  001B                     	;# 
    92  001B                     	;# 
    93  001C                     	;# 
    94  001D                     	;# 
    95  001E                     	;# 
    96  001F                     	;# 
    97  0081                     	;# 
    98  0085                     	;# 
    99  0086                     	;# 
   100  0087                     	;# 
   101  0088                     	;# 
   102  0089                     	;# 
   103  008C                     	;# 
   104  008D                     	;# 
   105  008E                     	;# 
   106  0091                     	;# 
   107  0092                     	;# 
   108  0093                     	;# 
   109  0094                     	;# 
   110  0098                     	;# 
   111  0099                     	;# 
   112  009C                     	;# 
   113  009D                     	;# 
   114  009E                     	;# 
   115  009F                     	;# 
   116  010C                     	;# 
   117  010D                     	;# 
   118  010E                     	;# 
   119  010F                     	;# 
   120  018C                     	;# 
   121  018D                     	;# 
   122  0000                     	;# 
   123  0001                     	;# 
   124  0002                     	;# 
   125  0003                     	;# 
   126  0004                     	;# 
   127  0005                     	;# 
   128  0006                     	;# 
   129  0007                     	;# 
   130  0008                     	;# 
   131  0009                     	;# 
   132  000A                     	;# 
   133  000B                     	;# 
   134  000C                     	;# 
   135  000D                     	;# 
   136  000E                     	;# 
   137  000E                     	;# 
   138  000F                     	;# 
   139  0010                     	;# 
   140  0011                     	;# 
   141  0012                     	;# 
   142  0013                     	;# 
   143  0014                     	;# 
   144  0015                     	;# 
   145  0015                     	;# 
   146  0016                     	;# 
   147  0017                     	;# 
   148  0018                     	;# 
   149  0019                     	;# 
   150  001A                     	;# 
   151  001B                     	;# 
   152  001B                     	;# 
   153  001C                     	;# 
   154  001D                     	;# 
   155  001E                     	;# 
   156  001F                     	;# 
   157  0081                     	;# 
   158  0085                     	;# 
   159  0086                     	;# 
   160  0087                     	;# 
   161  0088                     	;# 
   162  0089                     	;# 
   163  008C                     	;# 
   164  008D                     	;# 
   165  008E                     	;# 
   166  0091                     	;# 
   167  0092                     	;# 
   168  0093                     	;# 
   169  0094                     	;# 
   170  0098                     	;# 
   171  0099                     	;# 
   172  009C                     	;# 
   173  009D                     	;# 
   174  009E                     	;# 
   175  009F                     	;# 
   176  010C                     	;# 
   177  010D                     	;# 
   178  010E                     	;# 
   179  010F                     	;# 
   180  018C                     	;# 
   181  018D                     	;# 
   182  0000                     	;# 
   183  0001                     	;# 
   184  0002                     	;# 
   185  0003                     	;# 
   186  0004                     	;# 
   187  0005                     	;# 
   188  0006                     	;# 
   189  0007                     	;# 
   190  0008                     	;# 
   191  0009                     	;# 
   192  000A                     	;# 
   193  000B                     	;# 
   194  000C                     	;# 
   195  000D                     	;# 
   196  000E                     	;# 
   197  000E                     	;# 
   198  000F                     	;# 
   199  0010                     	;# 
   200  0011                     	;# 
   201  0012                     	;# 
   202  0013                     	;# 
   203  0014                     	;# 
   204  0015                     	;# 
   205  0015                     	;# 
   206  0016                     	;# 
   207  0017                     	;# 
   208  0018                     	;# 
   209  0019                     	;# 
   210  001A                     	;# 
   211  001B                     	;# 
   212  001B                     	;# 
   213  001C                     	;# 
   214  001D                     	;# 
   215  001E                     	;# 
   216  001F                     	;# 
   217  0081                     	;# 
   218  0085                     	;# 
   219  0086                     	;# 
   220  0087                     	;# 
   221  0088                     	;# 
   222  0089                     	;# 
   223  008C                     	;# 
   224  008D                     	;# 
   225  008E                     	;# 
   226  0091                     	;# 
   227  0092                     	;# 
   228  0093                     	;# 
   229  0094                     	;# 
   230  0098                     	;# 
   231  0099                     	;# 
   232  009C                     	;# 
   233  009D                     	;# 
   234  009E                     	;# 
   235  009F                     	;# 
   236  010C                     	;# 
   237  010D                     	;# 
   238  010E                     	;# 
   239  010F                     	;# 
   240  018C                     	;# 
   241  018D                     	;# 
   242  0000                     	;# 
   243  0001                     	;# 
   244  0002                     	;# 
   245  0003                     	;# 
   246  0004                     	;# 
   247  0005                     	;# 
   248  0006                     	;# 
   249  0007                     	;# 
   250  0008                     	;# 
   251  0009                     	;# 
   252  000A                     	;# 
   253  000B                     	;# 
   254  000C                     	;# 
   255  000D                     	;# 
   256  000E                     	;# 
   257  000E                     	;# 
   258  000F                     	;# 
   259  0010                     	;# 
   260  0011                     	;# 
   261  0012                     	;# 
   262  0013                     	;# 
   263  0014                     	;# 
   264  0015                     	;# 
   265  0015                     	;# 
   266  0016                     	;# 
   267  0017                     	;# 
   268  0018                     	;# 
   269  0019                     	;# 
   270  001A                     	;# 
   271  001B                     	;# 
   272  001B                     	;# 
   273  001C                     	;# 
   274  001D                     	;# 
   275  001E                     	;# 
   276  001F                     	;# 
   277  0081                     	;# 
   278  0085                     	;# 
   279  0086                     	;# 
   280  0087                     	;# 
   281  0088                     	;# 
   282  0089                     	;# 
   283  008C                     	;# 
   284  008D                     	;# 
   285  008E                     	;# 
   286  0091                     	;# 
   287  0092                     	;# 
   288  0093                     	;# 
   289  0094                     	;# 
   290  0098                     	;# 
   291  0099                     	;# 
   292  009C                     	;# 
   293  009D                     	;# 
   294  009E                     	;# 
   295  009F                     	;# 
   296  010C                     	;# 
   297  010D                     	;# 
   298  010E                     	;# 
   299  010F                     	;# 
   300  018C                     	;# 
   301  018D                     	;# 
   302                           
   303                           	psect	idataBANK0
   304  0EA1                     __pidataBANK0:
   305                           
   306                           ;initializer for _FULL_STEP
   307  0EA1  3409               	retlw	9
   308  0EA2  3400               	retlw	0
   309  0EA3  340C               	retlw	12
   310  0EA4  3400               	retlw	0
   311  0EA5  3406               	retlw	6
   312  0EA6  3400               	retlw	0
   313  0EA7  3403               	retlw	3
   314  0EA8  3400               	retlw	0
   315                           
   316                           	psect	idataBANK1
   317  0EC3                     __pidataBANK1:
   318                           
   319                           ;initializer for _HALF_STEP
   320  0EC3  3408               	retlw	8
   321  0EC4  3400               	retlw	0
   322  0EC5  340C               	retlw	12
   323  0EC6  3400               	retlw	0
   324  0EC7  3404               	retlw	4
   325  0EC8  3400               	retlw	0
   326  0EC9  3406               	retlw	6
   327  0ECA  3400               	retlw	0
   328  0ECB  3402               	retlw	2
   329  0ECC  3400               	retlw	0
   330  0ECD  3403               	retlw	3
   331  0ECE  3400               	retlw	0
   332  0ECF  3401               	retlw	1
   333  0ED0  3400               	retlw	0
   334  0ED1  3409               	retlw	9
   335  0ED2  3400               	retlw	0
   336                           
   337                           	psect	nvBANK0
   338  0065                     __pnvBANK0:
   339  0065                     _flag:
   340  0065                     	ds	2
   341  001E                     _ADRESH	set	30
   342  001F                     _ADCON0bits	set	31
   343  001F                     _ADCON0	set	31
   344  0008                     _PORTD	set	8
   345  009E                     _ADRESL	set	158
   346  009F                     _ADCON1bits	set	159
   347  009F                     _ADCON1	set	159
   348  0085                     _TRISA	set	133
   349  0088                     _TRISD	set	136
   350                           
   351                           	psect	cinit
   352  07E1                     start_initialization:	
   353                           ; #config settings
   354                           
   355  07E1                     __initialization:
   356                           
   357                           ; Initialize objects allocated to BANK1
   358  07E1  1383               	bcf	3,7	;select IRP bank0
   359  07E2  30B0               	movlw	low (__pdataBANK1+16)
   360  07E3  00FD               	movwf	btemp+-1
   361  07E4  300E               	movlw	high __pidataBANK1
   362  07E5  00FE               	movwf	btemp
   363  07E6  30C3               	movlw	low __pidataBANK1
   364  07E7  00FF               	movwf	btemp+1
   365  07E8  30A0               	movlw	low __pdataBANK1
   366  07E9  0084               	movwf	4
   367  07EA  120A  118A  2007  120A  118A  	fcall	init_ram0
   368                           
   369                           ; Initialize objects allocated to BANK0
   370  07EF  3065               	movlw	low (__pdataBANK0+8)
   371  07F0  00FD               	movwf	btemp+-1
   372  07F1  300E               	movlw	high __pidataBANK0
   373  07F2  00FE               	movwf	btemp
   374  07F3  30A1               	movlw	low __pidataBANK0
   375  07F4  00FF               	movwf	btemp+1
   376  07F5  305D               	movlw	low __pdataBANK0
   377  07F6  0084               	movwf	4
   378  07F7  120A  118A  2007  120A  118A  	fcall	init_ram0
   379  07FC                     end_of_initialization:	
   380                           ;End of C runtime variable initialization code
   381                           
   382  07FC                     __end_of__initialization:
   383  07FC  0183               	clrf	3
   384  07FD  120A  158A  2ED3   	ljmp	_main	;jump to C main() function
   385                           
   386                           	psect	dataBANK0
   387  005D                     __pdataBANK0:
   388  005D                     _FULL_STEP:
   389  005D                     	ds	8
   390                           
   391                           	psect	dataBANK1
   392  00A0                     __pdataBANK1:
   393  00A0                     _HALF_STEP:
   394  00A0                     	ds	16
   395                           
   396                           	psect	inittext
   397  0003                     init_fetch0:	
   398                           ;	Called with low address in FSR and high address in W
   399                           
   400  0003  087E               	movf	btemp,w
   401  0004  008A               	movwf	10
   402  0005  087F               	movf	btemp+1,w
   403  0006  0082               	movwf	2
   404  0007                     init_ram0:	
   405                           ;Called with:
   406                           ;	high address of idata address in btemp 
   407                           ;	low address of idata address in btemp+1 
   408                           ;	low address of data in FSR
   409                           ;	high address + 1 of data in btemp-1
   410                           
   411  0007  120A  118A  2003  120A  118A  	fcall	init_fetch0
   412  000C  0080               	movwf	0
   413  000D  0A84               	incf	4,f
   414  000E  0804               	movf	4,w
   415  000F  067D               	xorwf	btemp+-1,w
   416  0010  1903               	btfsc	3,2
   417  0011  3400               	retlw	0
   418  0012  0AFF               	incf	btemp+1,f
   419  0013  1903               	btfsc	3,2
   420  0014  0AFE               	incf	btemp,f
   421  0015  2807               	goto	init_ram0
   422                           
   423                           	psect	cstackCOMMON
   424  0070                     __pcstackCOMMON:
   425  0070                     ?_init_adc:
   426  0070                     ??_init_adc:	
   427                           ; 1 bytes @ 0x0
   428                           
   429  0070                     ?_INITSTEPPER:	
   430                           ; 1 bytes @ 0x0
   431                           
   432  0070                     ??_INITSTEPPER:	
   433                           ; 1 bytes @ 0x0
   434                           
   435  0070                     ?_SETSPEED:	
   436                           ; 1 bytes @ 0x0
   437                           
   438  0070                     ?_main:	
   439                           ; 1 bytes @ 0x0
   440                           
   441  0070                     ?_readADC:	
   442                           ; 1 bytes @ 0x0
   443                           
   444  0070                     ?__Umul8_16:	
   445                           ; 2 bytes @ 0x0
   446                           
   447  0070                     ?___awmod:	
   448                           ; 2 bytes @ 0x0
   449                           
   450  0070                     ?___fladd:	
   451                           ; 2 bytes @ 0x0
   452                           
   453  0070                     ?___xxtofl:	
   454                           ; 4 bytes @ 0x0
   455                           
   456  0070                     __Umul8_16@multiplicand:	
   457                           ; 4 bytes @ 0x0
   458                           
   459  0070                     readADC@cha:	
   460                           ; 1 bytes @ 0x0
   461                           
   462  0070                     ___awmod@divisor:	
   463                           ; 2 bytes @ 0x0
   464                           
   465  0070                     ___fladd@b:	
   466                           ; 2 bytes @ 0x0
   467                           
   468  0070                     ___xxtofl@val:	
   469                           ; 4 bytes @ 0x0
   470                           
   471                           
   472                           ; 4 bytes @ 0x0
   473  0070                     	ds	2
   474  0072                     ??_readADC:
   475  0072                     ??__Umul8_16:	
   476                           ; 1 bytes @ 0x2
   477                           
   478  0072                     ___awmod@dividend:	
   479                           ; 1 bytes @ 0x2
   480                           
   481                           
   482                           ; 2 bytes @ 0x2
   483  0072                     	ds	2
   484  0074                     ??___awmod:
   485  0074                     ??___xxtofl:	
   486                           ; 1 bytes @ 0x4
   487                           
   488  0074                     __Umul8_16@product:	
   489                           ; 1 bytes @ 0x4
   490                           
   491  0074                     ___fladd@a:	
   492                           ; 2 bytes @ 0x4
   493                           
   494                           
   495                           ; 4 bytes @ 0x4
   496  0074                     	ds	1
   497  0075                     ___awmod@counter:
   498                           
   499                           ; 1 bytes @ 0x5
   500  0075                     	ds	1
   501  0076                     ___awmod@sign:
   502  0076                     __Umul8_16@word_mpld:	
   503                           ; 1 bytes @ 0x6
   504                           
   505                           
   506                           ; 2 bytes @ 0x6
   507  0076                     	ds	2
   508  0078                     ___fladd@signs:
   509  0078                     __Umul8_16@multiplier:	
   510                           ; 1 bytes @ 0x8
   511                           
   512  0078                     ___xxtofl@sign:	
   513                           ; 1 bytes @ 0x8
   514                           
   515                           
   516                           ; 1 bytes @ 0x8
   517  0078                     	ds	1
   518  0079                     ___fladd@aexp:
   519  0079                     ___xxtofl@exp:	
   520                           ; 1 bytes @ 0x9
   521                           
   522                           
   523                           ; 1 bytes @ 0x9
   524  0079                     	ds	1
   525  007A                     ___fladd@bexp:
   526  007A                     ___xxtofl@arg:	
   527                           ; 1 bytes @ 0xA
   528                           
   529                           
   530                           ; 4 bytes @ 0xA
   531  007A                     	ds	1
   532  007B                     ___fladd@grs:
   533                           
   534                           ; 1 bytes @ 0xB
   535  007B                     	ds	3
   536  007E                     ??_main:
   537  007E                     ??___flsub:	
   538                           ; 1 bytes @ 0xE
   539                           
   540                           
   541                           	psect	cstackBANK0
   542  0020                     __pcstackBANK0:	
   543                           ; 1 bytes @ 0xE
   544                           
   545  0020                     ??___fladd:
   546  0020                     ?___flmul:	
   547                           ; 1 bytes @ 0x0
   548                           
   549  0020                     ___flmul@b:	
   550                           ; 4 bytes @ 0x0
   551                           
   552                           
   553                           ; 4 bytes @ 0x0
   554  0020                     	ds	4
   555  0024                     ___flmul@a:
   556                           
   557                           ; 4 bytes @ 0x4
   558  0024                     	ds	4
   559  0028                     ??___flmul:
   560                           
   561                           ; 1 bytes @ 0x8
   562  0028                     	ds	5
   563  002D                     ___flmul@sign:
   564                           
   565                           ; 1 bytes @ 0xD
   566  002D                     	ds	1
   567  002E                     ___flmul@grs:
   568                           
   569                           ; 4 bytes @ 0xE
   570  002E                     	ds	4
   571  0032                     ___flmul@aexp:
   572                           
   573                           ; 1 bytes @ 0x12
   574  0032                     	ds	1
   575  0033                     ___flmul@bexp:
   576                           
   577                           ; 1 bytes @ 0x13
   578  0033                     	ds	1
   579  0034                     ___flmul@prod:
   580                           
   581                           ; 4 bytes @ 0x14
   582  0034                     	ds	4
   583  0038                     ___flmul@temp:
   584                           
   585                           ; 2 bytes @ 0x18
   586  0038                     	ds	2
   587  003A                     ?___flsub:
   588  003A                     ___flsub@a:	
   589                           ; 4 bytes @ 0x1A
   590                           
   591                           
   592                           ; 4 bytes @ 0x1A
   593  003A                     	ds	4
   594  003E                     ___flsub@b:
   595                           
   596                           ; 4 bytes @ 0x1E
   597  003E                     	ds	4
   598  0042                     ?___fltol:
   599  0042                     ___fltol@f1:	
   600                           ; 4 bytes @ 0x22
   601                           
   602                           
   603                           ; 4 bytes @ 0x22
   604  0042                     	ds	4
   605  0046                     ??___fltol:
   606                           
   607                           ; 1 bytes @ 0x26
   608  0046                     	ds	5
   609  004B                     ___fltol@sign1:
   610                           
   611                           ; 1 bytes @ 0x2B
   612  004B                     	ds	1
   613  004C                     ___fltol@exp1:
   614                           
   615                           ; 1 bytes @ 0x2C
   616  004C                     	ds	1
   617  004D                     ??_SETSPEED:
   618                           
   619                           ; 1 bytes @ 0x2D
   620  004D                     	ds	4
   621  0051                     SETSPEED@maxstep:
   622                           
   623                           ; 2 bytes @ 0x31
   624  0051                     	ds	2
   625  0053                     SETSPEED@value:
   626                           
   627                           ; 2 bytes @ 0x33
   628  0053                     	ds	2
   629  0055                     SETSPEED@i:
   630                           
   631                           ; 2 bytes @ 0x35
   632  0055                     	ds	2
   633  0057                     SETSPEED@y:
   634                           
   635                           ; 2 bytes @ 0x37
   636  0057                     	ds	2
   637  0059                     SETSPEED@t:
   638                           
   639                           ; 4 bytes @ 0x39
   640  0059                     	ds	4
   641                           
   642                           	psect	maintext
   643  0ED3                     __pmaintext:	
   644 ;;
   645 ;;Main: autosize = 0, tempsize = 0, incstack = 0, save=0
   646 ;;
   647 ;; *************** function _main *****************
   648 ;; Defined at:
   649 ;;		line 37 in file "main.c"
   650 ;; Parameters:    Size  Location     Type
   651 ;;		None
   652 ;; Auto vars:     Size  Location     Type
   653 ;;		None
   654 ;; Return value:  Size  Location     Type
   655 ;;                  1    wreg      void 
   656 ;; Registers used:
   657 ;;		wreg, fsr0l, fsr0h, status,2, status,0, btemp+1, pclath, cstack
   658 ;; Tracked objects:
   659 ;;		On entry : B00/0
   660 ;;		On exit  : 0/0
   661 ;;		Unchanged: 0/0
   662 ;; Data sizes:     COMMON   BANK0   BANK1   BANK3   BANK2
   663 ;;      Params:         0       0       0       0       0
   664 ;;      Locals:         0       0       0       0       0
   665 ;;      Temps:          0       0       0       0       0
   666 ;;      Totals:         0       0       0       0       0
   667 ;;Total ram usage:        0 bytes
   668 ;; Hardware stack levels required when called:    3
   669 ;; This function calls:
   670 ;;		_INITSTEPPER
   671 ;;		_SETSPEED
   672 ;;		_init_adc
   673 ;; This function is called by:
   674 ;;		Startup code after reset
   675 ;; This function uses a non-reentrant model
   676 ;;
   677                           
   678                           
   679                           ;psect for function _main
   680  0ED3                     _main:
   681  0ED3                     l1709:	
   682                           ;incstack = 0
   683                           ; Regs used in _main: [wreg-fsr0h+status,2+status,0+btemp+1+pclath+cstack]
   684                           
   685                           
   686                           ;main.c: 40:     INITSTEPPER();
   687  0ED3  120A  158A  26A9  120A  158A  	fcall	_INITSTEPPER
   688                           
   689                           ;main.c: 41:     init_adc();
   690  0ED8  120A  158A  26B4  120A  158A  	fcall	_init_adc
   691  0EDD                     l1711:
   692                           
   693                           ;main.c: 42:     SETSPEED();
   694  0EDD  120A  118A  20F7  120A  158A  	fcall	_SETSPEED
   695  0EE2                     l46:
   696  0EE2  120A  118A  2800   	ljmp	start
   697  0EE5                     __end_of_main:
   698                           
   699                           	psect	text1
   700  0EB4                     __ptext1:	
   701 ;; *************** function _init_adc *****************
   702 ;; Defined at:
   703 ;;		line 12 in file "MYADC.c"
   704 ;; Parameters:    Size  Location     Type
   705 ;;		None
   706 ;; Auto vars:     Size  Location     Type
   707 ;;		None
   708 ;; Return value:  Size  Location     Type
   709 ;;                  1    wreg      void 
   710 ;; Registers used:
   711 ;;		wreg, status,2
   712 ;; Tracked objects:
   713 ;;		On entry : 0/0
   714 ;;		On exit  : 0/0
   715 ;;		Unchanged: 0/0
   716 ;; Data sizes:     COMMON   BANK0   BANK1   BANK3   BANK2
   717 ;;      Params:         0       0       0       0       0
   718 ;;      Locals:         0       0       0       0       0
   719 ;;      Temps:          0       0       0       0       0
   720 ;;      Totals:         0       0       0       0       0
   721 ;;Total ram usage:        0 bytes
   722 ;; Hardware stack levels used:    1
   723 ;; This function calls:
   724 ;;		Nothing
   725 ;; This function is called by:
   726 ;;		_main
   727 ;; This function uses a non-reentrant model
   728 ;;
   729                           
   730                           
   731                           ;psect for function _init_adc
   732  0EB4                     _init_adc:
   733  0EB4                     l1177:	
   734                           ;incstack = 0
   735                           ; Regs used in _init_adc: [wreg+status,2]
   736                           
   737                           
   738                           ;MYADC.c: 14:     TRISA = 0xff;
   739  0EB4  30FF               	movlw	255
   740  0EB5  1683               	bsf	3,5	;RP0=1, select bank1
   741  0EB6  1303               	bcf	3,6	;RP1=0, select bank1
   742  0EB7  0085               	movwf	5	;volatile
   743  0EB8                     l1179:
   744                           
   745                           ;MYADC.c: 15:     ADCON0 = 0x00;
   746  0EB8  1283               	bcf	3,5	;RP0=0, select bank0
   747  0EB9  1303               	bcf	3,6	;RP1=0, select bank0
   748  0EBA  019F               	clrf	31	;volatile
   749  0EBB                     l1181:
   750                           
   751                           ;MYADC.c: 16:     ADCON1 = 0x00;
   752  0EBB  1683               	bsf	3,5	;RP0=1, select bank1
   753  0EBC  1303               	bcf	3,6	;RP1=0, select bank1
   754  0EBD  019F               	clrf	31	;volatile
   755  0EBE                     l1183:
   756                           
   757                           ;MYADC.c: 17:     ADCON1bits.ADFM = 1;
   758  0EBE  179F               	bsf	31,7	;volatile
   759  0EBF                     l1185:
   760                           
   761                           ;MYADC.c: 18:     ADCON0bits.ADON = 1;
   762  0EBF  1283               	bcf	3,5	;RP0=0, select bank0
   763  0EC0  1303               	bcf	3,6	;RP1=0, select bank0
   764  0EC1  141F               	bsf	31,0	;volatile
   765  0EC2                     l65:
   766  0EC2  0008               	return
   767  0EC3                     __end_of_init_adc:
   768                           
   769                           	psect	text2
   770  00F7                     __ptext2:	
   771 ;; *************** function _SETSPEED *****************
   772 ;; Defined at:
   773 ;;		line 42 in file "MYSTEPPER.c"
   774 ;; Parameters:    Size  Location     Type
   775 ;;		None
   776 ;; Auto vars:     Size  Location     Type
   777 ;;  i               2   53[BANK0 ] int 
   778 ;;  t               4   57[BANK0 ] unsigned long 
   779 ;;  value           2   51[BANK0 ] unsigned int 
   780 ;;  y               2   55[BANK0 ] int 
   781 ;;  maxstep         2   49[BANK0 ] int 
   782 ;; Return value:  Size  Location     Type
   783 ;;                  1    wreg      void 
   784 ;; Registers used:
   785 ;;		wreg, fsr0l, fsr0h, status,2, status,0, btemp+1, pclath, cstack
   786 ;; Tracked objects:
   787 ;;		On entry : 0/0
   788 ;;		On exit  : 0/0
   789 ;;		Unchanged: 0/0
   790 ;; Data sizes:     COMMON   BANK0   BANK1   BANK3   BANK2
   791 ;;      Params:         0       0       0       0       0
   792 ;;      Locals:         0      12       0       0       0
   793 ;;      Temps:          0       4       0       0       0
   794 ;;      Totals:         0      16       0       0       0
   795 ;;Total ram usage:       16 bytes
   796 ;; Hardware stack levels used:    1
   797 ;; Hardware stack levels required when called:    2
   798 ;; This function calls:
   799 ;;		___awmod
   800 ;;		___flmul
   801 ;;		___flsub
   802 ;;		___fltol
   803 ;;		___xxtofl
   804 ;;		_readADC
   805 ;; This function is called by:
   806 ;;		_main
   807 ;; This function uses a non-reentrant model
   808 ;;
   809                           
   810                           
   811                           ;psect for function _SETSPEED
   812  00F7                     _SETSPEED:
   813  00F7                     l1679:	
   814                           ;incstack = 0
   815                           ; Regs used in _SETSPEED: [wreg-fsr0h+status,2+status,0+btemp+1+pclath+cstack]
   816                           
   817  00F7  1283               	bcf	3,5	;RP0=0, select bank0
   818  00F8  1303               	bcf	3,6	;RP1=0, select bank0
   819  00F9  01D7               	clrf	SETSPEED@y
   820  00FA  01D8               	clrf	SETSPEED@y+1
   821  00FB                     l1681:
   822                           
   823                           ;MYSTEPPER.c: 44:     int maxstep = 4+4*1;
   824  00FB  3008               	movlw	8
   825  00FC  00D1               	movwf	SETSPEED@maxstep
   826  00FD  3000               	movlw	0
   827  00FE  00D2               	movwf	SETSPEED@maxstep+1
   828                           
   829                           ;MYSTEPPER.c: 46:     while(flag)
   830  00FF  29E1               	goto	l1705
   831  0100                     l1683:
   832                           
   833                           ;MYSTEPPER.c: 47:     {;MYSTEPPER.c: 48:       PORTD = HALF_STEP[y++];
   834  0100  0857               	movf	SETSPEED@y,w
   835  0101  00CD               	movwf	??_SETSPEED
   836  0102  074D               	addwf	??_SETSPEED,w
   837  0103  3EA0               	addlw	(low (_HALF_STEP| 0))& (0+255)
   838  0104  0084               	movwf	4
   839  0105  1383               	bcf	3,7	;select IRP bank1
   840  0106  0800               	movf	0,w
   841  0107  0088               	movwf	8	;volatile
   842  0108                     l1685:
   843  0108  3001               	movlw	1
   844  0109  07D7               	addwf	SETSPEED@y,f
   845  010A  1803               	skipnc
   846  010B  0AD8               	incf	SETSPEED@y+1,f
   847  010C  3000               	movlw	0
   848  010D  07D8               	addwf	SETSPEED@y+1,f
   849  010E                     l1687:
   850                           
   851                           ;MYSTEPPER.c: 49:       unsigned int value = readADC(0)+1;
   852  010E  3000               	movlw	0
   853  010F  00F0               	movwf	readADC@cha
   854  0110  00F1               	movwf	readADC@cha+1
   855  0111  120A  158A  26E5  120A  118A  	fcall	_readADC
   856  0116  0870               	movf	?_readADC,w
   857  0117  3E01               	addlw	1
   858  0118  1283               	bcf	3,5	;RP0=0, select bank0
   859  0119  1303               	bcf	3,6	;RP1=0, select bank0
   860  011A  00D3               	movwf	SETSPEED@value
   861  011B  0871               	movf	?_readADC+1,w
   862  011C  1803               	skipnc
   863  011D  3E01               	addlw	1
   864  011E  3E00               	addlw	0
   865  011F  00D4               	movwf	SETSPEED@value+1
   866  0120                     l1689:
   867                           
   868                           ;MYSTEPPER.c: 52:       y = y % maxstep;
   869  0120  0852               	movf	SETSPEED@maxstep+1,w
   870  0121  00F1               	movwf	___awmod@divisor+1
   871  0122  0851               	movf	SETSPEED@maxstep,w
   872  0123  00F0               	movwf	___awmod@divisor
   873  0124  0858               	movf	SETSPEED@y+1,w
   874  0125  00F3               	movwf	___awmod@dividend+1
   875  0126  0857               	movf	SETSPEED@y,w
   876  0127  00F2               	movwf	___awmod@dividend
   877  0128  120A  158A  272B  120A  118A  	fcall	___awmod
   878  012D  0871               	movf	?___awmod+1,w
   879  012E  1283               	bcf	3,5	;RP0=0, select bank0
   880  012F  1303               	bcf	3,6	;RP1=0, select bank0
   881  0130  00D8               	movwf	SETSPEED@y+1
   882  0131  0870               	movf	?___awmod,w
   883  0132  00D7               	movwf	SETSPEED@y
   884  0133                     l1691:
   885                           
   886                           ;MYSTEPPER.c: 53:       long unsigned int t = 1000.9765-0.9765*value;
   887  0133  3044               	movlw	68
   888  0134  00C1               	movwf	___flsub@b+3
   889  0135  307A               	movlw	122
   890  0136  00C0               	movwf	___flsub@b+2
   891  0137  303E               	movlw	62
   892  0138  00BF               	movwf	___flsub@b+1
   893  0139  307F               	movlw	127
   894  013A  00BE               	movwf	___flsub@b
   895  013B  0853               	movf	SETSPEED@value,w
   896  013C  00F0               	movwf	___xxtofl@val
   897  013D  0854               	movf	SETSPEED@value+1,w
   898  013E  00F1               	movwf	___xxtofl@val+1
   899  013F  01F2               	clrf	___xxtofl@val+2
   900  0140  01F3               	clrf	___xxtofl@val+3
   901  0141  3000               	movlw	0
   902  0142  120A  118A  203D  120A  118A  	fcall	___xxtofl
   903  0147  0873               	movf	?___xxtofl+3,w
   904  0148  1283               	bcf	3,5	;RP0=0, select bank0
   905  0149  1303               	bcf	3,6	;RP1=0, select bank0
   906  014A  00A7               	movwf	___flmul@a+3
   907  014B  0872               	movf	?___xxtofl+2,w
   908  014C  00A6               	movwf	___flmul@a+2
   909  014D  0871               	movf	?___xxtofl+1,w
   910  014E  00A5               	movwf	___flmul@a+1
   911  014F  0870               	movf	?___xxtofl,w
   912  0150  00A4               	movwf	___flmul@a
   913  0151  303F               	movlw	63
   914  0152  00A3               	movwf	___flmul@b+3
   915  0153  3079               	movlw	121
   916  0154  00A2               	movwf	___flmul@b+2
   917  0155  30FB               	movlw	251
   918  0156  00A1               	movwf	___flmul@b+1
   919  0157  30E7               	movlw	231
   920  0158  00A0               	movwf	___flmul@b
   921  0159  120A  118A  2480  120A  118A  	fcall	___flmul
   922  015E  1283               	bcf	3,5	;RP0=0, select bank0
   923  015F  1303               	bcf	3,6	;RP1=0, select bank0
   924  0160  0823               	movf	?___flmul+3,w
   925  0161  00BD               	movwf	___flsub@a+3
   926  0162  0822               	movf	?___flmul+2,w
   927  0163  00BC               	movwf	___flsub@a+2
   928  0164  0821               	movf	?___flmul+1,w
   929  0165  00BB               	movwf	___flsub@a+1
   930  0166  0820               	movf	?___flmul,w
   931  0167  00BA               	movwf	___flsub@a
   932  0168  120A  158A  2707  120A  118A  	fcall	___flsub
   933  016D  1283               	bcf	3,5	;RP0=0, select bank0
   934  016E  1303               	bcf	3,6	;RP1=0, select bank0
   935  016F  083D               	movf	?___flsub+3,w
   936  0170  00C5               	movwf	___fltol@f1+3
   937  0171  083C               	movf	?___flsub+2,w
   938  0172  00C4               	movwf	___fltol@f1+2
   939  0173  083B               	movf	?___flsub+1,w
   940  0174  00C3               	movwf	___fltol@f1+1
   941  0175  083A               	movf	?___flsub,w
   942  0176  00C2               	movwf	___fltol@f1
   943  0177  120A  158A  2784  120A  118A  	fcall	___fltol
   944  017C  1283               	bcf	3,5	;RP0=0, select bank0
   945  017D  1303               	bcf	3,6	;RP1=0, select bank0
   946  017E  0845               	movf	?___fltol+3,w
   947  017F  00DC               	movwf	SETSPEED@t+3
   948  0180  0844               	movf	?___fltol+2,w
   949  0181  00DB               	movwf	SETSPEED@t+2
   950  0182  0843               	movf	?___fltol+1,w
   951  0183  00DA               	movwf	SETSPEED@t+1
   952  0184  0842               	movf	?___fltol,w
   953  0185  00D9               	movwf	SETSPEED@t
   954  0186                     l1693:
   955                           
   956                           ;MYSTEPPER.c: 54:         if(t<1)
   957  0186  085C               	movf	SETSPEED@t+3,w
   958  0187  045B               	iorwf	SETSPEED@t+2,w
   959  0188  045A               	iorwf	SETSPEED@t+1,w
   960  0189  0459               	iorwf	SETSPEED@t,w
   961  018A  1D03               	skipz
   962  018B  298D               	goto	u2471
   963  018C  298E               	goto	u2470
   964  018D                     u2471:
   965  018D  2996               	goto	l1697
   966  018E                     u2470:
   967  018E                     l1695:
   968                           
   969                           ;MYSTEPPER.c: 55:             t=1;
   970  018E  3000               	movlw	0
   971  018F  00DC               	movwf	SETSPEED@t+3
   972  0190  3000               	movlw	0
   973  0191  00DB               	movwf	SETSPEED@t+2
   974  0192  3000               	movlw	0
   975  0193  00DA               	movwf	SETSPEED@t+1
   976  0194  3001               	movlw	1
   977  0195  00D9               	movwf	SETSPEED@t
   978  0196                     l1697:
   979                           
   980                           ;MYSTEPPER.c: 56:         if(t>1000)
   981  0196  085C               	movf	SETSPEED@t+3,w
   982  0197  1D03               	btfss	3,2
   983  0198  29A8               	goto	u2480
   984  0199  085B               	movf	SETSPEED@t+2,w
   985  019A  1D03               	btfss	3,2
   986  019B  29A8               	goto	u2480
   987  019C  3003               	movlw	3
   988  019D  025A               	subwf	SETSPEED@t+1,w
   989  019E  1D03               	skipz
   990  019F  29A4               	goto	u2483
   991  01A0  30E9               	movlw	233
   992  01A1  0259               	subwf	SETSPEED@t,w
   993  01A2  1D03               	skipz
   994  01A3  29A4               	goto	u2483
   995  01A4                     u2483:
   996  01A4  1C03               	btfss	3,0
   997  01A5  29A7               	goto	u2481
   998  01A6  29A8               	goto	u2480
   999  01A7                     u2481:
  1000  01A7  29B2               	goto	l1701
  1001  01A8                     u2480:
  1002  01A8                     l1699:
  1003                           
  1004                           ;MYSTEPPER.c: 57:             t=1000;
  1005  01A8  3000               	movlw	0
  1006  01A9  1283               	bcf	3,5	;RP0=0, select bank0
  1007  01AA  1303               	bcf	3,6	;RP1=0, select bank0
  1008  01AB  00DC               	movwf	SETSPEED@t+3
  1009  01AC  3000               	movlw	0
  1010  01AD  00DB               	movwf	SETSPEED@t+2
  1011  01AE  3003               	movlw	3
  1012  01AF  00DA               	movwf	SETSPEED@t+1
  1013  01B0  30E8               	movlw	232
  1014  01B1  00D9               	movwf	SETSPEED@t
  1015  01B2                     l1701:
  1016                           
  1017                           ;MYSTEPPER.c: 58:       for(int i=0;i<t;i++){__nop(); __nop();__nop(); __nop();__nop();_
      +                          _nop();__nop();}
  1018  01B2  1283               	bcf	3,5	;RP0=0, select bank0
  1019  01B3  1303               	bcf	3,6	;RP1=0, select bank0
  1020  01B4  01D5               	clrf	SETSPEED@i
  1021  01B5  01D6               	clrf	SETSPEED@i+1
  1022  01B6  29C6               	goto	l24
  1023  01B7                     l25:
  1024  01B7  0000               	nop
  1025  01B8  0000               	nop
  1026  01B9  0000               	nop
  1027  01BA  0000               	nop
  1028  01BB  0000               	nop
  1029  01BC  0000               	nop
  1030  01BD  0000               	nop
  1031  01BE                     l1703:
  1032  01BE  3001               	movlw	1
  1033  01BF  1283               	bcf	3,5	;RP0=0, select bank0
  1034  01C0  1303               	bcf	3,6	;RP1=0, select bank0
  1035  01C1  07D5               	addwf	SETSPEED@i,f
  1036  01C2  1803               	skipnc
  1037  01C3  0AD6               	incf	SETSPEED@i+1,f
  1038  01C4  3000               	movlw	0
  1039  01C5  07D6               	addwf	SETSPEED@i+1,f
  1040  01C6                     l24:
  1041  01C6  0855               	movf	SETSPEED@i,w
  1042  01C7  00CD               	movwf	??_SETSPEED
  1043  01C8  0856               	movf	SETSPEED@i+1,w
  1044  01C9  00CE               	movwf	??_SETSPEED+1
  1045  01CA  3000               	movlw	0
  1046  01CB  1BCE               	btfsc	??_SETSPEED+1,7
  1047  01CC  30FF               	movlw	255
  1048  01CD  00CF               	movwf	??_SETSPEED+2
  1049  01CE  00D0               	movwf	??_SETSPEED+3
  1050  01CF  085C               	movf	SETSPEED@t+3,w
  1051  01D0  0250               	subwf	??_SETSPEED+3,w
  1052  01D1  1D03               	skipz
  1053  01D2  29DD               	goto	u2495
  1054  01D3  085B               	movf	SETSPEED@t+2,w
  1055  01D4  024F               	subwf	??_SETSPEED+2,w
  1056  01D5  1D03               	skipz
  1057  01D6  29DD               	goto	u2495
  1058  01D7  085A               	movf	SETSPEED@t+1,w
  1059  01D8  024E               	subwf	??_SETSPEED+1,w
  1060  01D9  1D03               	skipz
  1061  01DA  29DD               	goto	u2495
  1062  01DB  0859               	movf	SETSPEED@t,w
  1063  01DC  024D               	subwf	??_SETSPEED,w
  1064  01DD                     u2495:
  1065  01DD  1C03               	skipc
  1066  01DE  29E0               	goto	u2491
  1067  01DF  29E1               	goto	u2490
  1068  01E0                     u2491:
  1069  01E0  29B7               	goto	l25
  1070  01E1                     u2490:
  1071  01E1                     l1705:
  1072                           
  1073                           ;MYSTEPPER.c: 46:     while(flag)
  1074  01E1  0865               	movf	_flag,w
  1075  01E2  0466               	iorwf	_flag+1,w
  1076  01E3  1D03               	btfss	3,2
  1077  01E4  29E6               	goto	u2501
  1078  01E5  29E7               	goto	u2500
  1079  01E6                     u2501:
  1080  01E6  2900               	goto	l1683
  1081  01E7                     u2500:
  1082  01E7                     l28:
  1083  01E7  0008               	return
  1084  01E8                     __end_of_SETSPEED:
  1085                           
  1086                           	psect	text3
  1087  0EE5                     __ptext3:	
  1088 ;; *************** function _readADC *****************
  1089 ;; Defined at:
  1090 ;;		line 21 in file "MYADC.c"
  1091 ;; Parameters:    Size  Location     Type
  1092 ;;  cha             2    0[COMMON] int 
  1093 ;; Auto vars:     Size  Location     Type
  1094 ;;		None
  1095 ;; Return value:  Size  Location     Type
  1096 ;;                  2    0[COMMON] unsigned int 
  1097 ;; Registers used:
  1098 ;;		wreg, status,2, status,0
  1099 ;; Tracked objects:
  1100 ;;		On entry : 0/0
  1101 ;;		On exit  : 0/0
  1102 ;;		Unchanged: 0/0
  1103 ;; Data sizes:     COMMON   BANK0   BANK1   BANK3   BANK2
  1104 ;;      Params:         2       0       0       0       0
  1105 ;;      Locals:         0       0       0       0       0
  1106 ;;      Temps:          2       0       0       0       0
  1107 ;;      Totals:         4       0       0       0       0
  1108 ;;Total ram usage:        4 bytes
  1109 ;; Hardware stack levels used:    1
  1110 ;; This function calls:
  1111 ;;		Nothing
  1112 ;; This function is called by:
  1113 ;;		_SETSPEED
  1114 ;; This function uses a non-reentrant model
  1115 ;;
  1116                           
  1117                           
  1118                           ;psect for function _readADC
  1119  0EE5                     _readADC:
  1120  0EE5                     l1401:	
  1121                           ;incstack = 0
  1122                           ; Regs used in _readADC: [wreg+status,2+status,0]
  1123                           
  1124                           
  1125                           ;MYADC.c: 21: unsigned int readADC(int cha);MYADC.c: 22: {;MYADC.c: 24:     ADCON0 |= ch
      +                          a<<3;
  1126  0EE5  0870               	movf	readADC@cha,w	;volatile
  1127  0EE6  00F2               	movwf	??_readADC
  1128  0EE7  3002               	movlw	2
  1129  0EE8                     u1755:
  1130  0EE8  1003               	clrc
  1131  0EE9  0DF2               	rlf	??_readADC,f
  1132  0EEA  3EFF               	addlw	-1
  1133  0EEB  1D03               	skipz
  1134  0EEC  2EE8               	goto	u1755
  1135  0EED  1003               	clrc
  1136  0EEE  0D72               	rlf	??_readADC,w
  1137  0EEF  00F3               	movwf	??_readADC+1
  1138  0EF0  0873               	movf	??_readADC+1,w
  1139  0EF1  1283               	bcf	3,5	;RP0=0, select bank0
  1140  0EF2  1303               	bcf	3,6	;RP1=0, select bank0
  1141  0EF3  049F               	iorwf	31,f	;volatile
  1142  0EF4                     l1403:
  1143                           
  1144                           ;MYADC.c: 25:     _delay((unsigned long)((3)*(1000000/4000.0)));
  1145  0EF4  30F9               	movlw	249
  1146  0EF5  00F2               	movwf	??_readADC
  1147  0EF6                     u2517:
  1148  0EF6  0BF2               	decfsz	??_readADC,f
  1149  0EF7  2EF6               	goto	u2517
  1150  0EF8  2EF9               	nop2
  1151  0EF9                     l1405:
  1152                           
  1153                           ;MYADC.c: 26:     ADCON0bits.GO_nDONE =1;
  1154  0EF9  1283               	bcf	3,5	;RP0=0, select bank0
  1155  0EFA  1303               	bcf	3,6	;RP1=0, select bank0
  1156  0EFB  151F               	bsf	31,2	;volatile
  1157  0EFC                     l68:	
  1158                           ;MYADC.c: 27:     while(ADCON0bits.GO_nDONE);
  1159                           
  1160  0EFC  191F               	btfsc	31,2	;volatile
  1161  0EFD  2EFF               	goto	u1761
  1162  0EFE  2F00               	goto	u1760
  1163  0EFF                     u1761:
  1164  0EFF  2EFC               	goto	l68
  1165  0F00                     u1760:
  1166  0F00                     l1407:
  1167                           
  1168                           ;MYADC.c: 29: return((ADRESH<<8)+ADRESL);
  1169  0F00  081E               	movf	30,w	;volatile
  1170  0F01  00F1               	movwf	?_readADC+1
  1171  0F02  1683               	bsf	3,5	;RP0=1, select bank1
  1172  0F03  1303               	bcf	3,6	;RP1=0, select bank1
  1173  0F04  081E               	movf	30,w	;volatile
  1174  0F05  00F0               	movwf	?_readADC
  1175  0F06                     l71:
  1176  0F06  0008               	return
  1177  0F07                     __end_of_readADC:
  1178                           
  1179                           	psect	text4
  1180  003D                     __ptext4:	
  1181 ;; *************** function ___xxtofl *****************
  1182 ;; Defined at:
  1183 ;;		line 10 in file "C:\Program Files\Microchip\xc8\v2.31\pic\sources\c90\common\xxtofl.c"
  1184 ;; Parameters:    Size  Location     Type
  1185 ;;  sign            1    wreg     unsigned char 
  1186 ;;  val             4    0[COMMON] long 
  1187 ;; Auto vars:     Size  Location     Type
  1188 ;;  sign            1    8[COMMON] unsigned char 
  1189 ;;  arg             4   10[COMMON] unsigned long 
  1190 ;;  exp             1    9[COMMON] unsigned char 
  1191 ;; Return value:  Size  Location     Type
  1192 ;;                  4    0[COMMON] unsigned char 
  1193 ;; Registers used:
  1194 ;;		wreg, status,2, status,0
  1195 ;; Tracked objects:
  1196 ;;		On entry : 0/0
  1197 ;;		On exit  : 0/0
  1198 ;;		Unchanged: 0/0
  1199 ;; Data sizes:     COMMON   BANK0   BANK1   BANK3   BANK2
  1200 ;;      Params:         4       0       0       0       0
  1201 ;;      Locals:         6       0       0       0       0
  1202 ;;      Temps:          4       0       0       0       0
  1203 ;;      Totals:        14       0       0       0       0
  1204 ;;Total ram usage:       14 bytes
  1205 ;; Hardware stack levels used:    1
  1206 ;; This function calls:
  1207 ;;		Nothing
  1208 ;; This function is called by:
  1209 ;;		_SETSPEED
  1210 ;; This function uses a non-reentrant model
  1211 ;;
  1212                           
  1213                           
  1214                           ;psect for function ___xxtofl
  1215  003D                     ___xxtofl:
  1216                           
  1217                           ;incstack = 0
  1218                           ; Regs used in ___xxtofl: [wreg+status,2+status,0]
  1219                           ;___xxtofl@sign stored from wreg
  1220  003D  00F8               	movwf	___xxtofl@sign
  1221  003E                     l1631:
  1222  003E  0878               	movf	___xxtofl@sign,w
  1223  003F  1903               	btfsc	3,2
  1224  0040  2842               	goto	u2331
  1225  0041  2843               	goto	u2330
  1226  0042                     u2331:
  1227  0042  2857               	goto	l1637
  1228  0043                     u2330:
  1229  0043                     l1633:
  1230  0043  1FF3               	btfss	___xxtofl@val+3,7
  1231  0044  2846               	goto	u2341
  1232  0045  2847               	goto	u2340
  1233  0046                     u2341:
  1234  0046  2857               	goto	l1637
  1235  0047                     u2340:
  1236  0047                     l1635:
  1237  0047  0970               	comf	___xxtofl@val,w
  1238  0048  00FA               	movwf	___xxtofl@arg
  1239  0049  0971               	comf	___xxtofl@val+1,w
  1240  004A  00FB               	movwf	___xxtofl@arg+1
  1241  004B  0972               	comf	___xxtofl@val+2,w
  1242  004C  00FC               	movwf	___xxtofl@arg+2
  1243  004D  0973               	comf	___xxtofl@val+3,w
  1244  004E  00FD               	movwf	___xxtofl@arg+3
  1245  004F  0AFA               	incf	___xxtofl@arg,f
  1246  0050  1903               	skipnz
  1247  0051  0AFB               	incf	___xxtofl@arg+1,f
  1248  0052  1903               	skipnz
  1249  0053  0AFC               	incf	___xxtofl@arg+2,f
  1250  0054  1903               	skipnz
  1251  0055  0AFD               	incf	___xxtofl@arg+3,f
  1252  0056  285F               	goto	l590
  1253  0057                     l1637:
  1254  0057  0873               	movf	___xxtofl@val+3,w
  1255  0058  00FD               	movwf	___xxtofl@arg+3
  1256  0059  0872               	movf	___xxtofl@val+2,w
  1257  005A  00FC               	movwf	___xxtofl@arg+2
  1258  005B  0871               	movf	___xxtofl@val+1,w
  1259  005C  00FB               	movwf	___xxtofl@arg+1
  1260  005D  0870               	movf	___xxtofl@val,w
  1261  005E  00FA               	movwf	___xxtofl@arg
  1262  005F                     l590:
  1263  005F  0873               	movf	___xxtofl@val+3,w
  1264  0060  0472               	iorwf	___xxtofl@val+2,w
  1265  0061  0471               	iorwf	___xxtofl@val+1,w
  1266  0062  0470               	iorwf	___xxtofl@val,w
  1267  0063  1D03               	skipz
  1268  0064  2866               	goto	u2351
  1269  0065  2867               	goto	u2350
  1270  0066                     u2351:
  1271  0066  2870               	goto	l1643
  1272  0067                     u2350:
  1273  0067                     l1639:
  1274  0067  3000               	movlw	0
  1275  0068  00F3               	movwf	?___xxtofl+3
  1276  0069  3000               	movlw	0
  1277  006A  00F2               	movwf	?___xxtofl+2
  1278  006B  3000               	movlw	0
  1279  006C  00F1               	movwf	?___xxtofl+1
  1280  006D  3000               	movlw	0
  1281  006E  00F0               	movwf	?___xxtofl
  1282  006F  28F6               	goto	l592
  1283  0070                     l1643:
  1284  0070  3096               	movlw	150
  1285  0071  00F4               	movwf	??___xxtofl
  1286  0072  0874               	movf	??___xxtofl,w
  1287  0073  00F9               	movwf	___xxtofl@exp
  1288  0074  2882               	goto	l1647
  1289  0075                     l1645:
  1290  0075  3001               	movlw	1
  1291  0076  00F4               	movwf	??___xxtofl
  1292  0077  0874               	movf	??___xxtofl,w
  1293  0078  07F9               	addwf	___xxtofl@exp,f
  1294  0079  3001               	movlw	1
  1295  007A                     u2365:
  1296  007A  1003               	clrc
  1297  007B  0CFD               	rrf	___xxtofl@arg+3,f
  1298  007C  0CFC               	rrf	___xxtofl@arg+2,f
  1299  007D  0CFB               	rrf	___xxtofl@arg+1,f
  1300  007E  0CFA               	rrf	___xxtofl@arg,f
  1301  007F  3EFF               	addlw	-1
  1302  0080  1D03               	skipz
  1303  0081  287A               	goto	u2365
  1304  0082                     l1647:
  1305  0082  30FE               	movlw	254
  1306  0083  057D               	andwf	___xxtofl@arg+3,w
  1307  0084  1D03               	btfss	3,2
  1308  0085  2887               	goto	u2371
  1309  0086  2888               	goto	u2370
  1310  0087                     u2371:
  1311  0087  2875               	goto	l1645
  1312  0088                     u2370:
  1313  0088  28A4               	goto	l596
  1314  0089                     l1649:
  1315  0089  3001               	movlw	1
  1316  008A  00F4               	movwf	??___xxtofl
  1317  008B  0874               	movf	??___xxtofl,w
  1318  008C  07F9               	addwf	___xxtofl@exp,f
  1319  008D                     l1651:
  1320  008D  3001               	movlw	1
  1321  008E  07FA               	addwf	___xxtofl@arg,f
  1322  008F  3000               	movlw	0
  1323  0090  1803               	skipnc
  1324  0091  3001               	movlw	1
  1325  0092  07FB               	addwf	___xxtofl@arg+1,f
  1326  0093  3000               	movlw	0
  1327  0094  1803               	skipnc
  1328  0095  3001               	movlw	1
  1329  0096  07FC               	addwf	___xxtofl@arg+2,f
  1330  0097  3000               	movlw	0
  1331  0098  1803               	skipnc
  1332  0099  3001               	movlw	1
  1333  009A  07FD               	addwf	___xxtofl@arg+3,f
  1334  009B                     l1653:
  1335  009B  3001               	movlw	1
  1336  009C                     u2385:
  1337  009C  1003               	clrc
  1338  009D  0CFD               	rrf	___xxtofl@arg+3,f
  1339  009E  0CFC               	rrf	___xxtofl@arg+2,f
  1340  009F  0CFB               	rrf	___xxtofl@arg+1,f
  1341  00A0  0CFA               	rrf	___xxtofl@arg,f
  1342  00A1  3EFF               	addlw	-1
  1343  00A2  1D03               	skipz
  1344  00A3  289C               	goto	u2385
  1345  00A4                     l596:
  1346  00A4  30FF               	movlw	255
  1347  00A5  057D               	andwf	___xxtofl@arg+3,w
  1348  00A6  1D03               	btfss	3,2
  1349  00A7  28A9               	goto	u2391
  1350  00A8  28AA               	goto	u2390
  1351  00A9                     u2391:
  1352  00A9  2889               	goto	l1649
  1353  00AA                     u2390:
  1354  00AA  28B6               	goto	l1657
  1355  00AB                     l1655:
  1356  00AB  3001               	movlw	1
  1357  00AC  02F9               	subwf	___xxtofl@exp,f
  1358  00AD  3001               	movlw	1
  1359  00AE  00F4               	movwf	??___xxtofl
  1360  00AF                     u2405:
  1361  00AF  1003               	clrc
  1362  00B0  0DFA               	rlf	___xxtofl@arg,f
  1363  00B1  0DFB               	rlf	___xxtofl@arg+1,f
  1364  00B2  0DFC               	rlf	___xxtofl@arg+2,f
  1365  00B3  0DFD               	rlf	___xxtofl@arg+3,f
  1366  00B4  0BF4               	decfsz	??___xxtofl,f
  1367  00B5  28AF               	goto	u2405
  1368  00B6                     l1657:
  1369  00B6  1BFC               	btfsc	___xxtofl@arg+2,7
  1370  00B7  28B9               	goto	u2411
  1371  00B8  28BA               	goto	u2410
  1372  00B9                     u2411:
  1373  00B9  28C0               	goto	l603
  1374  00BA                     u2410:
  1375  00BA                     l1659:
  1376  00BA  3002               	movlw	2
  1377  00BB  0279               	subwf	___xxtofl@exp,w
  1378  00BC  1803               	skipnc
  1379  00BD  28BF               	goto	u2421
  1380  00BE  28C0               	goto	u2420
  1381  00BF                     u2421:
  1382  00BF  28AB               	goto	l1655
  1383  00C0                     u2420:
  1384  00C0                     l603:
  1385  00C0  1879               	btfsc	___xxtofl@exp,0
  1386  00C1  28C3               	goto	u2431
  1387  00C2  28C4               	goto	u2430
  1388  00C3                     u2431:
  1389  00C3  28CC               	goto	l604
  1390  00C4                     u2430:
  1391  00C4                     l1661:
  1392  00C4  30FF               	movlw	255
  1393  00C5  05FA               	andwf	___xxtofl@arg,f
  1394  00C6  30FF               	movlw	255
  1395  00C7  05FB               	andwf	___xxtofl@arg+1,f
  1396  00C8  307F               	movlw	127
  1397  00C9  05FC               	andwf	___xxtofl@arg+2,f
  1398  00CA  30FF               	movlw	255
  1399  00CB  05FD               	andwf	___xxtofl@arg+3,f
  1400  00CC                     l604:
  1401  00CC  1003               	clrc
  1402  00CD  0CF9               	rrf	___xxtofl@exp,f
  1403  00CE                     l1663:
  1404  00CE  0879               	movf	___xxtofl@exp,w
  1405  00CF  00F4               	movwf	??___xxtofl
  1406  00D0  01F5               	clrf	??___xxtofl+1
  1407  00D1  01F6               	clrf	??___xxtofl+2
  1408  00D2  01F7               	clrf	??___xxtofl+3
  1409  00D3  3018               	movlw	24
  1410  00D4                     u2445:
  1411  00D4  1003               	clrc
  1412  00D5  0DF4               	rlf	??___xxtofl,f
  1413  00D6  0DF5               	rlf	??___xxtofl+1,f
  1414  00D7  0DF6               	rlf	??___xxtofl+2,f
  1415  00D8  0DF7               	rlf	??___xxtofl+3,f
  1416  00D9                     u2440:
  1417  00D9  3EFF               	addlw	-1
  1418  00DA  1D03               	skipz
  1419  00DB  28D4               	goto	u2445
  1420  00DC  0874               	movf	??___xxtofl,w
  1421  00DD  04FA               	iorwf	___xxtofl@arg,f
  1422  00DE  0875               	movf	??___xxtofl+1,w
  1423  00DF  04FB               	iorwf	___xxtofl@arg+1,f
  1424  00E0  0876               	movf	??___xxtofl+2,w
  1425  00E1  04FC               	iorwf	___xxtofl@arg+2,f
  1426  00E2  0877               	movf	??___xxtofl+3,w
  1427  00E3  04FD               	iorwf	___xxtofl@arg+3,f
  1428  00E4                     l1665:
  1429  00E4  0878               	movf	___xxtofl@sign,w
  1430  00E5  1903               	btfsc	3,2
  1431  00E6  28E8               	goto	u2451
  1432  00E7  28E9               	goto	u2450
  1433  00E8                     u2451:
  1434  00E8  28EE               	goto	l1671
  1435  00E9                     u2450:
  1436  00E9                     l1667:
  1437  00E9  1FF3               	btfss	___xxtofl@val+3,7
  1438  00EA  28EC               	goto	u2461
  1439  00EB  28ED               	goto	u2460
  1440  00EC                     u2461:
  1441  00EC  28EE               	goto	l1671
  1442  00ED                     u2460:
  1443  00ED                     l1669:
  1444  00ED  17FD               	bsf	___xxtofl@arg+3,7
  1445  00EE                     l1671:
  1446  00EE  087D               	movf	___xxtofl@arg+3,w
  1447  00EF  00F3               	movwf	?___xxtofl+3
  1448  00F0  087C               	movf	___xxtofl@arg+2,w
  1449  00F1  00F2               	movwf	?___xxtofl+2
  1450  00F2  087B               	movf	___xxtofl@arg+1,w
  1451  00F3  00F1               	movwf	?___xxtofl+1
  1452  00F4  087A               	movf	___xxtofl@arg,w
  1453  00F5  00F0               	movwf	?___xxtofl
  1454  00F6                     l592:
  1455  00F6  0008               	return
  1456  00F7                     __end_of___xxtofl:
  1457                           
  1458                           	psect	text5
  1459  0F84                     __ptext5:	
  1460 ;; *************** function ___fltol *****************
  1461 ;; Defined at:
  1462 ;;		line 43 in file "C:\Program Files\Microchip\xc8\v2.31\pic\sources\c90\common\fltol.c"
  1463 ;; Parameters:    Size  Location     Type
  1464 ;;  f1              4   34[BANK0 ] unsigned char 
  1465 ;; Auto vars:     Size  Location     Type
  1466 ;;  exp1            1   44[BANK0 ] unsigned char 
  1467 ;;  sign1           1   43[BANK0 ] unsigned char 
  1468 ;; Return value:  Size  Location     Type
  1469 ;;                  4   34[BANK0 ] long 
  1470 ;; Registers used:
  1471 ;;		wreg, status,2, status,0
  1472 ;; Tracked objects:
  1473 ;;		On entry : 0/0
  1474 ;;		On exit  : 0/0
  1475 ;;		Unchanged: 0/0
  1476 ;; Data sizes:     COMMON   BANK0   BANK1   BANK3   BANK2
  1477 ;;      Params:         0       4       0       0       0
  1478 ;;      Locals:         0       2       0       0       0
  1479 ;;      Temps:          0       5       0       0       0
  1480 ;;      Totals:         0      11       0       0       0
  1481 ;;Total ram usage:       11 bytes
  1482 ;; Hardware stack levels used:    1
  1483 ;; This function calls:
  1484 ;;		Nothing
  1485 ;; This function is called by:
  1486 ;;		_SETSPEED
  1487 ;; This function uses a non-reentrant model
  1488 ;;
  1489                           
  1490                           
  1491                           ;psect for function ___fltol
  1492  0F84                     ___fltol:
  1493  0F84                     l1449:	
  1494                           ;incstack = 0
  1495                           ; Regs used in ___fltol: [wreg+status,2+status,0]
  1496                           
  1497  0F84  1003               	clrc
  1498  0F85  1283               	bcf	3,5	;RP0=0, select bank0
  1499  0F86  1303               	bcf	3,6	;RP1=0, select bank0
  1500  0F87  0D44               	rlf	___fltol@f1+2,w
  1501  0F88  0D45               	rlf	___fltol@f1+3,w
  1502  0F89  00C6               	movwf	??___fltol
  1503  0F8A  0846               	movf	??___fltol,w
  1504  0F8B  00CC               	movwf	___fltol@exp1
  1505  0F8C  084C               	movf	___fltol@exp1,w
  1506  0F8D  1D03               	btfss	3,2
  1507  0F8E  2F90               	goto	u1861
  1508  0F8F  2F91               	goto	u1860
  1509  0F90                     u1861:
  1510  0F90  2F9A               	goto	l1455
  1511  0F91                     u1860:
  1512  0F91                     l1451:
  1513  0F91  3000               	movlw	0
  1514  0F92  00C5               	movwf	?___fltol+3
  1515  0F93  3000               	movlw	0
  1516  0F94  00C4               	movwf	?___fltol+2
  1517  0F95  3000               	movlw	0
  1518  0F96  00C3               	movwf	?___fltol+1
  1519  0F97  3000               	movlw	0
  1520  0F98  00C2               	movwf	?___fltol
  1521  0F99  2FFF               	goto	l343
  1522  0F9A                     l1455:
  1523  0F9A  0842               	movf	___fltol@f1,w
  1524  0F9B  00C6               	movwf	??___fltol
  1525  0F9C  0843               	movf	___fltol@f1+1,w
  1526  0F9D  00C7               	movwf	??___fltol+1
  1527  0F9E  0844               	movf	___fltol@f1+2,w
  1528  0F9F  00C8               	movwf	??___fltol+2
  1529  0FA0  0845               	movf	___fltol@f1+3,w
  1530  0FA1  00C9               	movwf	??___fltol+3
  1531  0FA2  301F               	movlw	31
  1532  0FA3                     u1875:
  1533  0FA3  1003               	clrc
  1534  0FA4  0CC9               	rrf	??___fltol+3,f
  1535  0FA5  0CC8               	rrf	??___fltol+2,f
  1536  0FA6  0CC7               	rrf	??___fltol+1,f
  1537  0FA7  0CC6               	rrf	??___fltol,f
  1538  0FA8                     u1870:
  1539  0FA8  3EFF               	addlw	-1
  1540  0FA9  1D03               	skipz
  1541  0FAA  2FA3               	goto	u1875
  1542  0FAB  0846               	movf	??___fltol,w
  1543  0FAC  00CA               	movwf	??___fltol+4
  1544  0FAD  084A               	movf	??___fltol+4,w
  1545  0FAE  00CB               	movwf	___fltol@sign1
  1546  0FAF                     l1457:
  1547  0FAF  17C4               	bsf	___fltol@f1+2,7
  1548  0FB0                     l1459:
  1549  0FB0  30FF               	movlw	255
  1550  0FB1  05C2               	andwf	___fltol@f1,f
  1551  0FB2  30FF               	movlw	255
  1552  0FB3  05C3               	andwf	___fltol@f1+1,f
  1553  0FB4  30FF               	movlw	255
  1554  0FB5  05C4               	andwf	___fltol@f1+2,f
  1555  0FB6  3000               	movlw	0
  1556  0FB7  05C5               	andwf	___fltol@f1+3,f
  1557  0FB8                     l1461:
  1558  0FB8  3096               	movlw	150
  1559  0FB9  02CC               	subwf	___fltol@exp1,f
  1560  0FBA                     l1463:
  1561  0FBA  1FCC               	btfss	___fltol@exp1,7
  1562  0FBB  2FBD               	goto	u1881
  1563  0FBC  2FBE               	goto	u1880
  1564  0FBD                     u1881:
  1565  0FBD  2FD8               	goto	l1473
  1566  0FBE                     u1880:
  1567  0FBE                     l1465:
  1568  0FBE  084C               	movf	___fltol@exp1,w
  1569  0FBF  3A80               	xorlw	128
  1570  0FC0  3E97               	addlw	151
  1571  0FC1  1803               	skipnc
  1572  0FC2  2FC4               	goto	u1891
  1573  0FC3  2FC5               	goto	u1890
  1574  0FC4                     u1891:
  1575  0FC4  2FC6               	goto	l1471
  1576  0FC5                     u1890:
  1577  0FC5  2F91               	goto	l1451
  1578  0FC6                     l1471:
  1579  0FC6  3001               	movlw	1
  1580  0FC7                     u1905:
  1581  0FC7  1003               	clrc
  1582  0FC8  0CC5               	rrf	___fltol@f1+3,f
  1583  0FC9  0CC4               	rrf	___fltol@f1+2,f
  1584  0FCA  0CC3               	rrf	___fltol@f1+1,f
  1585  0FCB  0CC2               	rrf	___fltol@f1,f
  1586  0FCC  3EFF               	addlw	-1
  1587  0FCD  1D03               	skipz
  1588  0FCE  2FC7               	goto	u1905
  1589  0FCF  3001               	movlw	1
  1590  0FD0  00C6               	movwf	??___fltol
  1591  0FD1  0846               	movf	??___fltol,w
  1592  0FD2  07CC               	addwf	___fltol@exp1,f
  1593  0FD3  1D03               	btfss	3,2
  1594  0FD4  2FD6               	goto	u1911
  1595  0FD5  2FD7               	goto	u1910
  1596  0FD6                     u1911:
  1597  0FD6  2FC6               	goto	l1471
  1598  0FD7                     u1910:
  1599  0FD7  2FEF               	goto	l1481
  1600  0FD8                     l1473:
  1601  0FD8  3020               	movlw	32
  1602  0FD9  024C               	subwf	___fltol@exp1,w
  1603  0FDA  1C03               	skipc
  1604  0FDB  2FDD               	goto	u1921
  1605  0FDC  2FDE               	goto	u1920
  1606  0FDD                     u1921:
  1607  0FDD  2FEA               	goto	l350
  1608  0FDE                     u1920:
  1609  0FDE  2F91               	goto	l1451
  1610  0FDF                     l1479:
  1611  0FDF  3001               	movlw	1
  1612  0FE0  00C6               	movwf	??___fltol
  1613  0FE1                     u1935:
  1614  0FE1  1003               	clrc
  1615  0FE2  0DC2               	rlf	___fltol@f1,f
  1616  0FE3  0DC3               	rlf	___fltol@f1+1,f
  1617  0FE4  0DC4               	rlf	___fltol@f1+2,f
  1618  0FE5  0DC5               	rlf	___fltol@f1+3,f
  1619  0FE6  0BC6               	decfsz	??___fltol,f
  1620  0FE7  2FE1               	goto	u1935
  1621  0FE8  3001               	movlw	1
  1622  0FE9  02CC               	subwf	___fltol@exp1,f
  1623  0FEA                     l350:
  1624  0FEA  084C               	movf	___fltol@exp1,w
  1625  0FEB  1D03               	btfss	3,2
  1626  0FEC  2FEE               	goto	u1941
  1627  0FED  2FEF               	goto	u1940
  1628  0FEE                     u1941:
  1629  0FEE  2FDF               	goto	l1479
  1630  0FEF                     u1940:
  1631  0FEF                     l1481:
  1632  0FEF  084B               	movf	___fltol@sign1,w
  1633  0FF0  1903               	btfsc	3,2
  1634  0FF1  2FF3               	goto	u1951
  1635  0FF2  2FF4               	goto	u1950
  1636  0FF3                     u1951:
  1637  0FF3  2FFF               	goto	l353
  1638  0FF4                     u1950:
  1639  0FF4                     l1483:
  1640  0FF4  09C2               	comf	___fltol@f1,f
  1641  0FF5  09C3               	comf	___fltol@f1+1,f
  1642  0FF6  09C4               	comf	___fltol@f1+2,f
  1643  0FF7  09C5               	comf	___fltol@f1+3,f
  1644  0FF8  0AC2               	incf	___fltol@f1,f
  1645  0FF9  1903               	skipnz
  1646  0FFA  0AC3               	incf	___fltol@f1+1,f
  1647  0FFB  1903               	skipnz
  1648  0FFC  0AC4               	incf	___fltol@f1+2,f
  1649  0FFD  1903               	skipnz
  1650  0FFE  0AC5               	incf	___fltol@f1+3,f
  1651  0FFF                     l353:
  1652  0FFF                     l343:
  1653  0FFF  0008               	return
  1654  1000                     __end_of___fltol:
  1655                           
  1656                           	psect	text6
  1657  0F07                     __ptext6:	
  1658 ;; *************** function ___flsub *****************
  1659 ;; Defined at:
  1660 ;;		line 242 in file "C:\Program Files\Microchip\xc8\v2.31\pic\sources\c90\common\sprcadd.c"
  1661 ;; Parameters:    Size  Location     Type
  1662 ;;  a               4   26[BANK0 ] long 
  1663 ;;  b               4   30[BANK0 ] long 
  1664 ;; Auto vars:     Size  Location     Type
  1665 ;;		None
  1666 ;; Return value:  Size  Location     Type
  1667 ;;                  4   26[BANK0 ] long 
  1668 ;; Registers used:
  1669 ;;		wreg, status,2, status,0, btemp+1, pclath, cstack
  1670 ;; Tracked objects:
  1671 ;;		On entry : 0/0
  1672 ;;		On exit  : 0/0
  1673 ;;		Unchanged: 0/0
  1674 ;; Data sizes:     COMMON   BANK0   BANK1   BANK3   BANK2
  1675 ;;      Params:         0       8       0       0       0
  1676 ;;      Locals:         0       0       0       0       0
  1677 ;;      Temps:          0       0       0       0       0
  1678 ;;      Totals:         0       8       0       0       0
  1679 ;;Total ram usage:        8 bytes
  1680 ;; Hardware stack levels used:    1
  1681 ;; Hardware stack levels required when called:    1
  1682 ;; This function calls:
  1683 ;;		___fladd
  1684 ;; This function is called by:
  1685 ;;		_SETSPEED
  1686 ;; This function uses a non-reentrant model
  1687 ;;
  1688                           
  1689                           
  1690                           ;psect for function ___flsub
  1691  0F07                     ___flsub:
  1692  0F07                     l1485:	
  1693                           ;incstack = 0
  1694                           ; Regs used in ___flsub: [wreg+status,2+status,0+btemp+1+pclath+cstack]
  1695                           
  1696  0F07  3080               	movlw	128
  1697  0F08  1283               	bcf	3,5	;RP0=0, select bank0
  1698  0F09  1303               	bcf	3,6	;RP1=0, select bank0
  1699  0F0A  06BD               	xorwf	___flsub@a+3,f
  1700  0F0B                     l1487:
  1701  0F0B  0841               	movf	___flsub@b+3,w
  1702  0F0C  00F3               	movwf	___fladd@b+3
  1703  0F0D  0840               	movf	___flsub@b+2,w
  1704  0F0E  00F2               	movwf	___fladd@b+2
  1705  0F0F  083F               	movf	___flsub@b+1,w
  1706  0F10  00F1               	movwf	___fladd@b+1
  1707  0F11  083E               	movf	___flsub@b,w
  1708  0F12  00F0               	movwf	___fladd@b
  1709  0F13  083D               	movf	___flsub@a+3,w
  1710  0F14  00F7               	movwf	___fladd@a+3
  1711  0F15  083C               	movf	___flsub@a+2,w
  1712  0F16  00F6               	movwf	___fladd@a+2
  1713  0F17  083B               	movf	___flsub@a+1,w
  1714  0F18  00F5               	movwf	___fladd@a+1
  1715  0F19  083A               	movf	___flsub@a,w
  1716  0F1A  00F4               	movwf	___fladd@a
  1717  0F1B  120A  118A  21E8  120A  158A  	fcall	___fladd
  1718  0F20  0873               	movf	?___fladd+3,w
  1719  0F21  1283               	bcf	3,5	;RP0=0, select bank0
  1720  0F22  1303               	bcf	3,6	;RP1=0, select bank0
  1721  0F23  00BD               	movwf	?___flsub+3
  1722  0F24  0872               	movf	?___fladd+2,w
  1723  0F25  00BC               	movwf	?___flsub+2
  1724  0F26  0871               	movf	?___fladd+1,w
  1725  0F27  00BB               	movwf	?___flsub+1
  1726  0F28  0870               	movf	?___fladd,w
  1727  0F29  00BA               	movwf	?___flsub
  1728  0F2A                     l496:
  1729  0F2A  0008               	return
  1730  0F2B                     __end_of___flsub:
  1731                           
  1732                           	psect	text7
  1733  01E8                     __ptext7:	
  1734 ;; *************** function ___fladd *****************
  1735 ;; Defined at:
  1736 ;;		line 10 in file "C:\Program Files\Microchip\xc8\v2.31\pic\sources\c90\common\sprcadd.c"
  1737 ;; Parameters:    Size  Location     Type
  1738 ;;  b               4    0[COMMON] long 
  1739 ;;  a               4    4[COMMON] long 
  1740 ;; Auto vars:     Size  Location     Type
  1741 ;;  grs             1   11[COMMON] unsigned char 
  1742 ;;  bexp            1   10[COMMON] unsigned char 
  1743 ;;  aexp            1    9[COMMON] unsigned char 
  1744 ;;  signs           1    8[COMMON] unsigned char 
  1745 ;; Return value:  Size  Location     Type
  1746 ;;                  4    0[COMMON] unsigned char 
  1747 ;; Registers used:
  1748 ;;		wreg, status,2, status,0, btemp+1
  1749 ;; Tracked objects:
  1750 ;;		On entry : 0/0
  1751 ;;		On exit  : 0/0
  1752 ;;		Unchanged: 0/0
  1753 ;; Data sizes:     COMMON   BANK0   BANK1   BANK3   BANK2
  1754 ;;      Params:         8       0       0       0       0
  1755 ;;      Locals:         4       0       0       0       0
  1756 ;;      Temps:          0       8       0       0       0
  1757 ;;      Totals:        12       8       0       0       0
  1758 ;;Total ram usage:       20 bytes
  1759 ;; Hardware stack levels used:    1
  1760 ;; This function calls:
  1761 ;;		Nothing
  1762 ;; This function is called by:
  1763 ;;		___flsub
  1764 ;; This function uses a non-reentrant model
  1765 ;;
  1766                           
  1767                           
  1768                           ;psect for function ___fladd
  1769  01E8                     ___fladd:
  1770  01E8                     l1193:	
  1771                           ;incstack = 0
  1772                           ; Regs used in ___fladd: [wreg+status,2+status,0+btemp+1]
  1773                           
  1774  01E8  0873               	movf	___fladd@b+3,w
  1775  01E9  3980               	andlw	128
  1776  01EA  1283               	bcf	3,5	;RP0=0, select bank0
  1777  01EB  1303               	bcf	3,6	;RP1=0, select bank0
  1778  01EC  00A0               	movwf	??___fladd
  1779  01ED  0820               	movf	??___fladd,w
  1780  01EE  00F8               	movwf	___fladd@signs
  1781  01EF                     l1195:
  1782  01EF  0873               	movf	___fladd@b+3,w
  1783  01F0  00A0               	movwf	??___fladd
  1784  01F1  0720               	addwf	??___fladd,w
  1785  01F2  00A1               	movwf	??___fladd+1
  1786  01F3  0821               	movf	??___fladd+1,w
  1787  01F4  00FA               	movwf	___fladd@bexp
  1788  01F5                     l1197:
  1789  01F5  1FF2               	btfss	___fladd@b+2,7
  1790  01F6  29F8               	goto	u1261
  1791  01F7  29F9               	goto	u1260
  1792  01F8                     u1261:
  1793  01F8  29FA               	goto	l1201
  1794  01F9                     u1260:
  1795  01F9                     l1199:
  1796  01F9  147A               	bsf	___fladd@bexp,0
  1797  01FA                     l1201:
  1798  01FA  087A               	movf	___fladd@bexp,w
  1799  01FB  1903               	btfsc	3,2
  1800  01FC  29FE               	goto	u1271
  1801  01FD  29FF               	goto	u1270
  1802  01FE                     u1271:
  1803  01FE  2A0F               	goto	l1211
  1804  01FF                     u1270:
  1805  01FF                     l1203:
  1806  01FF  0A7A               	incf	___fladd@bexp,w
  1807  0200  1D03               	btfss	3,2
  1808  0201  2A03               	goto	u1281
  1809  0202  2A04               	goto	u1280
  1810  0203                     u1281:
  1811  0203  2A0C               	goto	l1207
  1812  0204                     u1280:
  1813  0204                     l1205:
  1814  0204  3000               	movlw	0
  1815  0205  00F3               	movwf	___fladd@b+3
  1816  0206  3000               	movlw	0
  1817  0207  00F2               	movwf	___fladd@b+2
  1818  0208  3000               	movlw	0
  1819  0209  00F1               	movwf	___fladd@b+1
  1820  020A  3000               	movlw	0
  1821  020B  00F0               	movwf	___fladd@b
  1822  020C                     l1207:
  1823  020C  17F2               	bsf	___fladd@b+2,7
  1824  020D                     l1209:
  1825  020D  01F3               	clrf	___fladd@b+3
  1826  020E  2A17               	goto	l1213
  1827  020F                     l1211:
  1828  020F  3000               	movlw	0
  1829  0210  00F3               	movwf	___fladd@b+3
  1830  0211  3000               	movlw	0
  1831  0212  00F2               	movwf	___fladd@b+2
  1832  0213  3000               	movlw	0
  1833  0214  00F1               	movwf	___fladd@b+1
  1834  0215  3000               	movlw	0
  1835  0216  00F0               	movwf	___fladd@b
  1836  0217                     l1213:
  1837  0217  0877               	movf	___fladd@a+3,w
  1838  0218  3980               	andlw	128
  1839  0219  00A0               	movwf	??___fladd
  1840  021A  0820               	movf	??___fladd,w
  1841  021B  00F9               	movwf	___fladd@aexp
  1842  021C                     l1215:
  1843  021C  0879               	movf	___fladd@aexp,w
  1844  021D  0678               	xorwf	___fladd@signs,w
  1845  021E  1903               	skipnz
  1846  021F  2A21               	goto	u1291
  1847  0220  2A22               	goto	u1290
  1848  0221                     u1291:
  1849  0221  2A23               	goto	l1219
  1850  0222                     u1290:
  1851  0222                     l1217:
  1852  0222  1778               	bsf	___fladd@signs,6
  1853  0223                     l1219:
  1854  0223  0877               	movf	___fladd@a+3,w
  1855  0224  00A0               	movwf	??___fladd
  1856  0225  0720               	addwf	??___fladd,w
  1857  0226  00A1               	movwf	??___fladd+1
  1858  0227  0821               	movf	??___fladd+1,w
  1859  0228  00F9               	movwf	___fladd@aexp
  1860  0229                     l1221:
  1861  0229  1FF6               	btfss	___fladd@a+2,7
  1862  022A  2A2C               	goto	u1301
  1863  022B  2A2D               	goto	u1300
  1864  022C                     u1301:
  1865  022C  2A2E               	goto	l1225
  1866  022D                     u1300:
  1867  022D                     l1223:
  1868  022D  1479               	bsf	___fladd@aexp,0
  1869  022E                     l1225:
  1870  022E  0879               	movf	___fladd@aexp,w
  1871  022F  1903               	btfsc	3,2
  1872  0230  2A32               	goto	u1311
  1873  0231  2A33               	goto	u1310
  1874  0232                     u1311:
  1875  0232  2A43               	goto	l1235
  1876  0233                     u1310:
  1877  0233                     l1227:
  1878  0233  0A79               	incf	___fladd@aexp,w
  1879  0234  1D03               	btfss	3,2
  1880  0235  2A37               	goto	u1321
  1881  0236  2A38               	goto	u1320
  1882  0237                     u1321:
  1883  0237  2A40               	goto	l1231
  1884  0238                     u1320:
  1885  0238                     l1229:
  1886  0238  3000               	movlw	0
  1887  0239  00F7               	movwf	___fladd@a+3
  1888  023A  3000               	movlw	0
  1889  023B  00F6               	movwf	___fladd@a+2
  1890  023C  3000               	movlw	0
  1891  023D  00F5               	movwf	___fladd@a+1
  1892  023E  3000               	movlw	0
  1893  023F  00F4               	movwf	___fladd@a
  1894  0240                     l1231:
  1895  0240  17F6               	bsf	___fladd@a+2,7
  1896  0241                     l1233:
  1897  0241  01F7               	clrf	___fladd@a+3
  1898  0242  2A4B               	goto	l450
  1899  0243                     l1235:
  1900  0243  3000               	movlw	0
  1901  0244  00F7               	movwf	___fladd@a+3
  1902  0245  3000               	movlw	0
  1903  0246  00F6               	movwf	___fladd@a+2
  1904  0247  3000               	movlw	0
  1905  0248  00F5               	movwf	___fladd@a+1
  1906  0249  3000               	movlw	0
  1907  024A  00F4               	movwf	___fladd@a
  1908  024B                     l450:
  1909  024B  087A               	movf	___fladd@bexp,w
  1910  024C  0279               	subwf	___fladd@aexp,w
  1911  024D  1803               	skipnc
  1912  024E  2A50               	goto	u1331
  1913  024F  2A51               	goto	u1330
  1914  0250                     u1331:
  1915  0250  2A95               	goto	l1271
  1916  0251                     u1330:
  1917  0251                     l1237:
  1918  0251  1F78               	btfss	___fladd@signs,6
  1919  0252  2A54               	goto	u1341
  1920  0253  2A55               	goto	u1340
  1921  0254                     u1341:
  1922  0254  2A59               	goto	l1241
  1923  0255                     u1340:
  1924  0255                     l1239:
  1925  0255  3080               	movlw	128
  1926  0256  00A0               	movwf	??___fladd
  1927  0257  0820               	movf	??___fladd,w
  1928  0258  06F8               	xorwf	___fladd@signs,f
  1929  0259                     l1241:
  1930  0259  087A               	movf	___fladd@bexp,w
  1931  025A  00A0               	movwf	??___fladd
  1932  025B  0820               	movf	??___fladd,w
  1933  025C  00FB               	movwf	___fladd@grs
  1934  025D                     l1243:
  1935  025D  0879               	movf	___fladd@aexp,w
  1936  025E  00A0               	movwf	??___fladd
  1937  025F  0820               	movf	??___fladd,w
  1938  0260  00FA               	movwf	___fladd@bexp
  1939  0261                     l1245:
  1940  0261  087B               	movf	___fladd@grs,w
  1941  0262  00A0               	movwf	??___fladd
  1942  0263  0820               	movf	??___fladd,w
  1943  0264  00F9               	movwf	___fladd@aexp
  1944  0265                     l1247:
  1945  0265  0870               	movf	___fladd@b,w
  1946  0266  00A0               	movwf	??___fladd
  1947  0267  0820               	movf	??___fladd,w
  1948  0268  00FB               	movwf	___fladd@grs
  1949  0269                     l1249:
  1950  0269  0874               	movf	___fladd@a,w
  1951  026A  00A0               	movwf	??___fladd
  1952  026B  0820               	movf	??___fladd,w
  1953  026C  00F0               	movwf	___fladd@b
  1954  026D                     l1251:
  1955  026D  087B               	movf	___fladd@grs,w
  1956  026E  00A0               	movwf	??___fladd
  1957  026F  0820               	movf	??___fladd,w
  1958  0270  00F4               	movwf	___fladd@a
  1959  0271                     l1253:
  1960  0271  0871               	movf	___fladd@b+1,w
  1961  0272  00A0               	movwf	??___fladd
  1962  0273  0820               	movf	??___fladd,w
  1963  0274  00FB               	movwf	___fladd@grs
  1964  0275                     l1255:
  1965  0275  0875               	movf	___fladd@a+1,w
  1966  0276  00A0               	movwf	??___fladd
  1967  0277  0820               	movf	??___fladd,w
  1968  0278  00F1               	movwf	___fladd@b+1
  1969  0279                     l1257:
  1970  0279  087B               	movf	___fladd@grs,w
  1971  027A  00A0               	movwf	??___fladd
  1972  027B  0820               	movf	??___fladd,w
  1973  027C  00F5               	movwf	___fladd@a+1
  1974  027D                     l1259:
  1975  027D  0872               	movf	___fladd@b+2,w
  1976  027E  00A0               	movwf	??___fladd
  1977  027F  0820               	movf	??___fladd,w
  1978  0280  00FB               	movwf	___fladd@grs
  1979  0281                     l1261:
  1980  0281  0876               	movf	___fladd@a+2,w
  1981  0282  00A0               	movwf	??___fladd
  1982  0283  0820               	movf	??___fladd,w
  1983  0284  00F2               	movwf	___fladd@b+2
  1984  0285                     l1263:
  1985  0285  087B               	movf	___fladd@grs,w
  1986  0286  00A0               	movwf	??___fladd
  1987  0287  0820               	movf	??___fladd,w
  1988  0288  00F6               	movwf	___fladd@a+2
  1989  0289                     l1265:
  1990  0289  0873               	movf	___fladd@b+3,w
  1991  028A  00A0               	movwf	??___fladd
  1992  028B  0820               	movf	??___fladd,w
  1993  028C  00FB               	movwf	___fladd@grs
  1994  028D                     l1267:
  1995  028D  0877               	movf	___fladd@a+3,w
  1996  028E  00A0               	movwf	??___fladd
  1997  028F  0820               	movf	??___fladd,w
  1998  0290  00F3               	movwf	___fladd@b+3
  1999  0291                     l1269:
  2000  0291  087B               	movf	___fladd@grs,w
  2001  0292  00A0               	movwf	??___fladd
  2002  0293  0820               	movf	??___fladd,w
  2003  0294  00F7               	movwf	___fladd@a+3
  2004  0295                     l1271:
  2005  0295  01FB               	clrf	___fladd@grs
  2006  0296                     l1273:
  2007  0296  0879               	movf	___fladd@aexp,w
  2008  0297  00A0               	movwf	??___fladd
  2009  0298  01A1               	clrf	??___fladd+1
  2010  0299  0821               	movf	??___fladd+1,w
  2011  029A  00A3               	movwf	??___fladd+3
  2012  029B  087A               	movf	___fladd@bexp,w
  2013  029C  0220               	subwf	??___fladd,w
  2014  029D  00A2               	movwf	??___fladd+2
  2015  029E  1C03               	skipc
  2016  029F  03A3               	decf	??___fladd+3,f
  2017  02A0  0823               	movf	??___fladd+3,w
  2018  02A1  3A80               	xorlw	128
  2019  02A2  00FF               	movwf	btemp+1
  2020  02A3  3080               	movlw	128
  2021  02A4  027F               	subwf	btemp+1,w
  2022  02A5  1D03               	skipz
  2023  02A6  2AA9               	goto	u1355
  2024  02A7  301A               	movlw	26
  2025  02A8  0222               	subwf	??___fladd+2,w
  2026  02A9                     u1355:
  2027  02A9  1C03               	skipc
  2028  02AA  2AAC               	goto	u1351
  2029  02AB  2AAD               	goto	u1350
  2030  02AC                     u1351:
  2031  02AC  2AEE               	goto	l1289
  2032  02AD                     u1350:
  2033  02AD                     l1275:
  2034  02AD  0873               	movf	___fladd@b+3,w
  2035  02AE  0472               	iorwf	___fladd@b+2,w
  2036  02AF  0471               	iorwf	___fladd@b+1,w
  2037  02B0  0470               	iorwf	___fladd@b,w
  2038  02B1  1D03               	skipz
  2039  02B2  2AB4               	goto	u1361
  2040  02B3  2AB6               	goto	u1360
  2041  02B4                     u1361:
  2042  02B4  3001               	movlw	1
  2043  02B5  2AB7               	goto	u1370
  2044  02B6                     u1360:
  2045  02B6  3000               	movlw	0
  2046  02B7                     u1370:
  2047  02B7  1283               	bcf	3,5	;RP0=0, select bank0
  2048  02B8  1303               	bcf	3,6	;RP1=0, select bank0
  2049  02B9  00A0               	movwf	??___fladd
  2050  02BA  0820               	movf	??___fladd,w
  2051  02BB  00FB               	movwf	___fladd@grs
  2052  02BC  3000               	movlw	0
  2053  02BD  00F3               	movwf	___fladd@b+3
  2054  02BE  3000               	movlw	0
  2055  02BF  00F2               	movwf	___fladd@b+2
  2056  02C0  3000               	movlw	0
  2057  02C1  00F1               	movwf	___fladd@b+1
  2058  02C2  3000               	movlw	0
  2059  02C3  00F0               	movwf	___fladd@b
  2060  02C4  0879               	movf	___fladd@aexp,w
  2061  02C5  00A0               	movwf	??___fladd
  2062  02C6  0820               	movf	??___fladd,w
  2063  02C7  00FA               	movwf	___fladd@bexp
  2064  02C8  2AF4               	goto	l454
  2065  02C9                     l456:
  2066  02C9  1C7B               	btfss	___fladd@grs,0
  2067  02CA  2ACC               	goto	u1381
  2068  02CB  2ACD               	goto	u1380
  2069  02CC                     u1381:
  2070  02CC  2AD8               	goto	l1279
  2071  02CD                     u1380:
  2072  02CD                     l1277:
  2073  02CD  087B               	movf	___fladd@grs,w
  2074  02CE  1283               	bcf	3,5	;RP0=0, select bank0
  2075  02CF  1303               	bcf	3,6	;RP1=0, select bank0
  2076  02D0  00A0               	movwf	??___fladd
  2077  02D1  1003               	clrc
  2078  02D2  0C20               	rrf	??___fladd,w
  2079  02D3  3801               	iorlw	1
  2080  02D4  00A1               	movwf	??___fladd+1
  2081  02D5  0821               	movf	??___fladd+1,w
  2082  02D6  00FB               	movwf	___fladd@grs
  2083  02D7  2ADA               	goto	l1281
  2084  02D8                     l1279:
  2085  02D8  1003               	clrc
  2086  02D9  0CFB               	rrf	___fladd@grs,f
  2087  02DA                     l1281:
  2088  02DA  1C70               	btfss	___fladd@b,0
  2089  02DB  2ADD               	goto	u1391
  2090  02DC  2ADE               	goto	u1390
  2091  02DD                     u1391:
  2092  02DD  2ADF               	goto	l1285
  2093  02DE                     u1390:
  2094  02DE                     l1283:
  2095  02DE  17FB               	bsf	___fladd@grs,7
  2096  02DF                     l1285:
  2097  02DF  3001               	movlw	1
  2098  02E0  1283               	bcf	3,5	;RP0=0, select bank0
  2099  02E1  1303               	bcf	3,6	;RP1=0, select bank0
  2100  02E2  00A0               	movwf	??___fladd
  2101  02E3                     u1405:
  2102  02E3  0D73               	rlf	___fladd@b+3,w
  2103  02E4  0CF3               	rrf	___fladd@b+3,f
  2104  02E5  0CF2               	rrf	___fladd@b+2,f
  2105  02E6  0CF1               	rrf	___fladd@b+1,f
  2106  02E7  0CF0               	rrf	___fladd@b,f
  2107  02E8  0BA0               	decfsz	??___fladd& (0+127),f
  2108  02E9  2AE3               	goto	u1405
  2109  02EA                     l1287:
  2110  02EA  3001               	movlw	1
  2111  02EB  00A0               	movwf	??___fladd
  2112  02EC  0820               	movf	??___fladd,w
  2113  02ED  07FA               	addwf	___fladd@bexp,f
  2114  02EE                     l1289:
  2115  02EE  0879               	movf	___fladd@aexp,w
  2116  02EF  027A               	subwf	___fladd@bexp,w
  2117  02F0  1C03               	skipc
  2118  02F1  2AF3               	goto	u1411
  2119  02F2  2AF4               	goto	u1410
  2120  02F3                     u1411:
  2121  02F3  2AC9               	goto	l456
  2122  02F4                     u1410:
  2123  02F4                     l454:
  2124  02F4  1B78               	btfsc	___fladd@signs,6
  2125  02F5  2AF7               	goto	u1421
  2126  02F6  2AF8               	goto	u1420
  2127  02F7                     u1421:
  2128  02F7  2B47               	goto	l1315
  2129  02F8                     u1420:
  2130  02F8                     l1291:
  2131  02F8  087A               	movf	___fladd@bexp,w
  2132  02F9  1D03               	btfss	3,2
  2133  02FA  2AFC               	goto	u1431
  2134  02FB  2AFD               	goto	u1430
  2135  02FC                     u1431:
  2136  02FC  2B06               	goto	l1297
  2137  02FD                     u1430:
  2138  02FD                     l1293:
  2139  02FD  3000               	movlw	0
  2140  02FE  00F3               	movwf	?___fladd+3
  2141  02FF  3000               	movlw	0
  2142  0300  00F2               	movwf	?___fladd+2
  2143  0301  3000               	movlw	0
  2144  0302  00F1               	movwf	?___fladd+1
  2145  0303  3000               	movlw	0
  2146  0304  00F0               	movwf	?___fladd
  2147  0305  2C7F               	goto	l463
  2148  0306                     l1297:
  2149  0306  0874               	movf	___fladd@a,w
  2150  0307  07F0               	addwf	___fladd@b,f
  2151  0308  0875               	movf	___fladd@a+1,w
  2152  0309  1103               	clrz
  2153  030A  1803               	skipnc
  2154  030B  3E01               	addlw	1
  2155  030C  1903               	skipnz
  2156  030D  2B0F               	goto	u1441
  2157  030E  07F1               	addwf	___fladd@b+1,f
  2158  030F                     u1441:
  2159  030F  0876               	movf	___fladd@a+2,w
  2160  0310  1103               	clrz
  2161  0311  1803               	skipnc
  2162  0312  3E01               	addlw	1
  2163  0313  1903               	skipnz
  2164  0314  2B16               	goto	u1442
  2165  0315  07F2               	addwf	___fladd@b+2,f
  2166  0316                     u1442:
  2167  0316  0877               	movf	___fladd@a+3,w
  2168  0317  1103               	clrz
  2169  0318  1803               	skipnc
  2170  0319  3E01               	addlw	1
  2171  031A  1903               	skipnz
  2172  031B  2B1D               	goto	u1443
  2173  031C  07F3               	addwf	___fladd@b+3,f
  2174  031D                     u1443:
  2175  031D                     l1299:
  2176  031D  1C73               	btfss	___fladd@b+3,0
  2177  031E  2B20               	goto	u1451
  2178  031F  2B21               	goto	u1450
  2179  0320                     u1451:
  2180  0320  2BFF               	goto	l1349
  2181  0321                     u1450:
  2182  0321                     l1301:
  2183  0321  1C7B               	btfss	___fladd@grs,0
  2184  0322  2B24               	goto	u1461
  2185  0323  2B25               	goto	u1460
  2186  0324                     u1461:
  2187  0324  2B30               	goto	l1305
  2188  0325                     u1460:
  2189  0325                     l1303:
  2190  0325  087B               	movf	___fladd@grs,w
  2191  0326  1283               	bcf	3,5	;RP0=0, select bank0
  2192  0327  1303               	bcf	3,6	;RP1=0, select bank0
  2193  0328  00A0               	movwf	??___fladd
  2194  0329  1003               	clrc
  2195  032A  0C20               	rrf	??___fladd,w
  2196  032B  3801               	iorlw	1
  2197  032C  00A1               	movwf	??___fladd+1
  2198  032D  0821               	movf	??___fladd+1,w
  2199  032E  00FB               	movwf	___fladd@grs
  2200  032F  2B32               	goto	l1307
  2201  0330                     l1305:
  2202  0330  1003               	clrc
  2203  0331  0CFB               	rrf	___fladd@grs,f
  2204  0332                     l1307:
  2205  0332  1C70               	btfss	___fladd@b,0
  2206  0333  2B35               	goto	u1471
  2207  0334  2B36               	goto	u1470
  2208  0335                     u1471:
  2209  0335  2B37               	goto	l1311
  2210  0336                     u1470:
  2211  0336                     l1309:
  2212  0336  17FB               	bsf	___fladd@grs,7
  2213  0337                     l1311:
  2214  0337  3001               	movlw	1
  2215  0338  1283               	bcf	3,5	;RP0=0, select bank0
  2216  0339  1303               	bcf	3,6	;RP1=0, select bank0
  2217  033A  00A0               	movwf	??___fladd
  2218  033B                     u1485:
  2219  033B  0D73               	rlf	___fladd@b+3,w
  2220  033C  0CF3               	rrf	___fladd@b+3,f
  2221  033D  0CF2               	rrf	___fladd@b+2,f
  2222  033E  0CF1               	rrf	___fladd@b+1,f
  2223  033F  0CF0               	rrf	___fladd@b,f
  2224  0340  0BA0               	decfsz	??___fladd& (0+127),f
  2225  0341  2B3B               	goto	u1485
  2226  0342                     l1313:
  2227  0342  3001               	movlw	1
  2228  0343  00A0               	movwf	??___fladd
  2229  0344  0820               	movf	??___fladd,w
  2230  0345  07FA               	addwf	___fladd@bexp,f
  2231  0346  2BFF               	goto	l1349
  2232  0347                     l1315:
  2233  0347  0873               	movf	___fladd@b+3,w
  2234  0348  3A80               	xorlw	128
  2235  0349  00FF               	movwf	btemp+1
  2236  034A  0877               	movf	___fladd@a+3,w
  2237  034B  3A80               	xorlw	128
  2238  034C  027F               	subwf	btemp+1,w
  2239  034D  1D03               	skipz
  2240  034E  2B59               	goto	u1493
  2241  034F  0876               	movf	___fladd@a+2,w
  2242  0350  0272               	subwf	___fladd@b+2,w
  2243  0351  1D03               	skipz
  2244  0352  2B59               	goto	u1493
  2245  0353  0875               	movf	___fladd@a+1,w
  2246  0354  0271               	subwf	___fladd@b+1,w
  2247  0355  1D03               	skipz
  2248  0356  2B59               	goto	u1493
  2249  0357  0874               	movf	___fladd@a,w
  2250  0358  0270               	subwf	___fladd@b,w
  2251  0359                     u1493:
  2252  0359  1803               	skipnc
  2253  035A  2B5C               	goto	u1491
  2254  035B  2B5D               	goto	u1490
  2255  035C                     u1491:
  2256  035C  2BB7               	goto	l1325
  2257  035D                     u1490:
  2258  035D                     l1317:
  2259  035D  30FF               	movlw	255
  2260  035E  1283               	bcf	3,5	;RP0=0, select bank0
  2261  035F  1303               	bcf	3,6	;RP1=0, select bank0
  2262  0360  00A0               	movwf	??___fladd
  2263  0361  30FF               	movlw	255
  2264  0362  00A1               	movwf	??___fladd+1
  2265  0363  30FF               	movlw	255
  2266  0364  00A2               	movwf	??___fladd+2
  2267  0365  30FF               	movlw	255
  2268  0366  00A3               	movwf	??___fladd+3
  2269  0367  0874               	movf	___fladd@a,w
  2270  0368  00A4               	movwf	??___fladd+4
  2271  0369  0875               	movf	___fladd@a+1,w
  2272  036A  00A5               	movwf	??___fladd+5
  2273  036B  0876               	movf	___fladd@a+2,w
  2274  036C  00A6               	movwf	??___fladd+6
  2275  036D  0877               	movf	___fladd@a+3,w
  2276  036E  00A7               	movwf	??___fladd+7
  2277  036F  0870               	movf	___fladd@b,w
  2278  0370  02A4               	subwf	??___fladd+4,f
  2279  0371  0871               	movf	___fladd@b+1,w
  2280  0372  1C03               	skipc
  2281  0373  0F71               	incfsz	___fladd@b+1,w
  2282  0374  2B76               	goto	u1501
  2283  0375  2B77               	goto	u1502
  2284  0376                     u1501:
  2285  0376  02A5               	subwf	??___fladd+5,f
  2286  0377                     u1502:
  2287  0377  0872               	movf	___fladd@b+2,w
  2288  0378  1C03               	skipc
  2289  0379  0F72               	incfsz	___fladd@b+2,w
  2290  037A  2B7C               	goto	u1503
  2291  037B  2B7D               	goto	u1504
  2292  037C                     u1503:
  2293  037C  02A6               	subwf	??___fladd+6,f
  2294  037D                     u1504:
  2295  037D  0873               	movf	___fladd@b+3,w
  2296  037E  1C03               	skipc
  2297  037F  0F73               	incfsz	___fladd@b+3,w
  2298  0380  2B82               	goto	u1505
  2299  0381  2B83               	goto	u1506
  2300  0382                     u1505:
  2301  0382  02A7               	subwf	??___fladd+7,f
  2302  0383                     u1506:
  2303  0383  0824               	movf	??___fladd+4,w
  2304  0384  07A0               	addwf	??___fladd,f
  2305  0385  0825               	movf	??___fladd+5,w
  2306  0386  1803               	skipnc
  2307  0387  0F25               	incfsz	??___fladd+5,w
  2308  0388  2B8A               	goto	u1510
  2309  0389  2B8B               	goto	u1511
  2310  038A                     u1510:
  2311  038A  07A1               	addwf	??___fladd+1,f
  2312  038B                     u1511:
  2313  038B  0826               	movf	??___fladd+6,w
  2314  038C  1803               	skipnc
  2315  038D  0F26               	incfsz	??___fladd+6,w
  2316  038E  2B90               	goto	u1512
  2317  038F  2B91               	goto	u1513
  2318  0390                     u1512:
  2319  0390  07A2               	addwf	??___fladd+2,f
  2320  0391                     u1513:
  2321  0391  0827               	movf	??___fladd+7,w
  2322  0392  1803               	skipnc
  2323  0393  0A27               	incf	??___fladd+7,w
  2324  0394  07A3               	addwf	??___fladd+3,f
  2325  0395  0823               	movf	??___fladd+3,w
  2326  0396  00F3               	movwf	___fladd@b+3
  2327  0397  0822               	movf	??___fladd+2,w
  2328  0398  00F2               	movwf	___fladd@b+2
  2329  0399  0821               	movf	??___fladd+1,w
  2330  039A  00F1               	movwf	___fladd@b+1
  2331  039B  0820               	movf	??___fladd,w
  2332  039C  00F0               	movwf	___fladd@b
  2333  039D                     l1319:
  2334  039D  3080               	movlw	128
  2335  039E  00A0               	movwf	??___fladd
  2336  039F  0820               	movf	??___fladd,w
  2337  03A0  06F8               	xorwf	___fladd@signs,f
  2338  03A1  09FB               	comf	___fladd@grs,f
  2339  03A2  0AFB               	incf	___fladd@grs,f
  2340  03A3                     l1321:
  2341  03A3  087B               	movf	___fladd@grs,w
  2342  03A4  1D03               	btfss	3,2
  2343  03A5  2BA7               	goto	u1521
  2344  03A6  2BA8               	goto	u1520
  2345  03A7                     u1521:
  2346  03A7  2BC5               	goto	l471
  2347  03A8                     u1520:
  2348  03A8                     l1323:
  2349  03A8  3001               	movlw	1
  2350  03A9  07F0               	addwf	___fladd@b,f
  2351  03AA  3000               	movlw	0
  2352  03AB  1803               	skipnc
  2353  03AC  3001               	movlw	1
  2354  03AD  07F1               	addwf	___fladd@b+1,f
  2355  03AE  3000               	movlw	0
  2356  03AF  1803               	skipnc
  2357  03B0  3001               	movlw	1
  2358  03B1  07F2               	addwf	___fladd@b+2,f
  2359  03B2  3000               	movlw	0
  2360  03B3  1803               	skipnc
  2361  03B4  3001               	movlw	1
  2362  03B5  07F3               	addwf	___fladd@b+3,f
  2363  03B6  2BC5               	goto	l471
  2364  03B7                     l1325:
  2365  03B7  0874               	movf	___fladd@a,w
  2366  03B8  02F0               	subwf	___fladd@b,f
  2367  03B9  0875               	movf	___fladd@a+1,w
  2368  03BA  1C03               	skipc
  2369  03BB  0F75               	incfsz	___fladd@a+1,w
  2370  03BC  02F1               	subwf	___fladd@b+1,f
  2371  03BD  0876               	movf	___fladd@a+2,w
  2372  03BE  1C03               	skipc
  2373  03BF  0F76               	incfsz	___fladd@a+2,w
  2374  03C0  02F2               	subwf	___fladd@b+2,f
  2375  03C1  0877               	movf	___fladd@a+3,w
  2376  03C2  1C03               	skipc
  2377  03C3  0F77               	incfsz	___fladd@a+3,w
  2378  03C4  02F3               	subwf	___fladd@b+3,f
  2379  03C5                     l471:
  2380  03C5  0873               	movf	___fladd@b+3,w
  2381  03C6  0472               	iorwf	___fladd@b+2,w
  2382  03C7  0471               	iorwf	___fladd@b+1,w
  2383  03C8  0470               	iorwf	___fladd@b,w
  2384  03C9  1D03               	skipz
  2385  03CA  2BCC               	goto	u1531
  2386  03CB  2BCD               	goto	u1530
  2387  03CC                     u1531:
  2388  03CC  2BFB               	goto	l1347
  2389  03CD                     u1530:
  2390  03CD                     l1327:
  2391  03CD  087B               	movf	___fladd@grs,w
  2392  03CE  1D03               	btfss	3,2
  2393  03CF  2BD1               	goto	u1541
  2394  03D0  2BD2               	goto	u1540
  2395  03D1                     u1541:
  2396  03D1  2BFB               	goto	l1347
  2397  03D2                     u1540:
  2398  03D2                     l1329:
  2399  03D2  3000               	movlw	0
  2400  03D3  00F3               	movwf	?___fladd+3
  2401  03D4  3000               	movlw	0
  2402  03D5  00F2               	movwf	?___fladd+2
  2403  03D6  3000               	movlw	0
  2404  03D7  00F1               	movwf	?___fladd+1
  2405  03D8  3000               	movlw	0
  2406  03D9  00F0               	movwf	?___fladd
  2407  03DA  2C7F               	goto	l463
  2408  03DB                     l1333:
  2409  03DB  3001               	movlw	1
  2410  03DC  1283               	bcf	3,5	;RP0=0, select bank0
  2411  03DD  1303               	bcf	3,6	;RP1=0, select bank0
  2412  03DE  00A0               	movwf	??___fladd
  2413  03DF                     u1555:
  2414  03DF  1003               	clrc
  2415  03E0  0DF0               	rlf	___fladd@b,f
  2416  03E1  0DF1               	rlf	___fladd@b+1,f
  2417  03E2  0DF2               	rlf	___fladd@b+2,f
  2418  03E3  0DF3               	rlf	___fladd@b+3,f
  2419  03E4  0BA0               	decfsz	??___fladd,f
  2420  03E5  2BDF               	goto	u1555
  2421  03E6                     l1335:
  2422  03E6  1FFB               	btfss	___fladd@grs,7
  2423  03E7  2BE9               	goto	u1561
  2424  03E8  2BEA               	goto	u1560
  2425  03E9                     u1561:
  2426  03E9  2BEB               	goto	l475
  2427  03EA                     u1560:
  2428  03EA                     l1337:
  2429  03EA  1470               	bsf	___fladd@b,0
  2430  03EB                     l475:
  2431  03EB  1C7B               	btfss	___fladd@grs,0
  2432  03EC  2BEE               	goto	u1571
  2433  03ED  2BEF               	goto	u1570
  2434  03EE                     u1571:
  2435  03EE  2BF2               	goto	l1341
  2436  03EF                     u1570:
  2437  03EF                     l1339:
  2438  03EF  1403               	setc
  2439  03F0  0DFB               	rlf	___fladd@grs,f
  2440  03F1  2BF4               	goto	l1343
  2441  03F2                     l1341:
  2442  03F2  1003               	clrc
  2443  03F3  0DFB               	rlf	___fladd@grs,f
  2444  03F4                     l1343:
  2445  03F4  087A               	movf	___fladd@bexp,w
  2446  03F5  1903               	btfsc	3,2
  2447  03F6  2BF8               	goto	u1581
  2448  03F7  2BF9               	goto	u1580
  2449  03F8                     u1581:
  2450  03F8  2BFB               	goto	l1347
  2451  03F9                     u1580:
  2452  03F9                     l1345:
  2453  03F9  3001               	movlw	1
  2454  03FA  02FA               	subwf	___fladd@bexp,f
  2455  03FB                     l1347:
  2456  03FB  1FF2               	btfss	___fladd@b+2,7
  2457  03FC  2BFE               	goto	u1591
  2458  03FD  2BFF               	goto	u1590
  2459  03FE                     u1591:
  2460  03FE  2BDB               	goto	l1333
  2461  03FF                     u1590:
  2462  03FF                     l1349:
  2463  03FF  01F9               	clrf	___fladd@aexp
  2464  0400                     l1351:
  2465  0400  1FFB               	btfss	___fladd@grs,7
  2466  0401  2C03               	goto	u1601
  2467  0402  2C04               	goto	u1600
  2468  0403                     u1601:
  2469  0403  2C12               	goto	l1359
  2470  0404                     u1600:
  2471  0404                     l1353:
  2472  0404  087B               	movf	___fladd@grs,w
  2473  0405  397F               	andlw	127
  2474  0406  1903               	btfsc	3,2
  2475  0407  2C09               	goto	u1611
  2476  0408  2C0A               	goto	u1610
  2477  0409                     u1611:
  2478  0409  2C0D               	goto	l481
  2479  040A                     u1610:
  2480  040A                     l1355:
  2481  040A  01F9               	clrf	___fladd@aexp
  2482  040B  0AF9               	incf	___fladd@aexp,f
  2483  040C  2C12               	goto	l1359
  2484  040D                     l481:
  2485  040D  1C70               	btfss	___fladd@b,0
  2486  040E  2C10               	goto	u1621
  2487  040F  2C11               	goto	u1620
  2488  0410                     u1621:
  2489  0410  2C12               	goto	l1359
  2490  0411                     u1620:
  2491  0411  2C0A               	goto	l1355
  2492  0412                     l1359:
  2493  0412  0879               	movf	___fladd@aexp,w
  2494  0413  1903               	btfsc	3,2
  2495  0414  2C16               	goto	u1631
  2496  0415  2C17               	goto	u1630
  2497  0416                     u1631:
  2498  0416  2C4D               	goto	l484
  2499  0417                     u1630:
  2500  0417                     l1361:
  2501  0417  3001               	movlw	1
  2502  0418  07F0               	addwf	___fladd@b,f
  2503  0419  3000               	movlw	0
  2504  041A  1803               	skipnc
  2505  041B  3001               	movlw	1
  2506  041C  07F1               	addwf	___fladd@b+1,f
  2507  041D  3000               	movlw	0
  2508  041E  1803               	skipnc
  2509  041F  3001               	movlw	1
  2510  0420  07F2               	addwf	___fladd@b+2,f
  2511  0421  3000               	movlw	0
  2512  0422  1803               	skipnc
  2513  0423  3001               	movlw	1
  2514  0424  07F3               	addwf	___fladd@b+3,f
  2515  0425                     l1363:
  2516  0425  1C73               	btfss	___fladd@b+3,0
  2517  0426  2C28               	goto	u1641
  2518  0427  2C29               	goto	u1640
  2519  0428                     u1641:
  2520  0428  2C4D               	goto	l484
  2521  0429                     u1640:
  2522  0429                     l1365:
  2523  0429  0870               	movf	___fladd@b,w
  2524  042A  1283               	bcf	3,5	;RP0=0, select bank0
  2525  042B  1303               	bcf	3,6	;RP1=0, select bank0
  2526  042C  00A0               	movwf	??___fladd
  2527  042D  0871               	movf	___fladd@b+1,w
  2528  042E  00A1               	movwf	??___fladd+1
  2529  042F  0872               	movf	___fladd@b+2,w
  2530  0430  00A2               	movwf	??___fladd+2
  2531  0431  0873               	movf	___fladd@b+3,w
  2532  0432  00A3               	movwf	??___fladd+3
  2533  0433  3001               	movlw	1
  2534  0434  00A4               	movwf	??___fladd+4
  2535  0435                     u1655:
  2536  0435  0D23               	rlf	??___fladd+3,w
  2537  0436  0CA3               	rrf	??___fladd+3,f
  2538  0437  0CA2               	rrf	??___fladd+2,f
  2539  0438  0CA1               	rrf	??___fladd+1,f
  2540  0439  0CA0               	rrf	??___fladd,f
  2541  043A                     u1650:
  2542  043A  0BA4               	decfsz	??___fladd+4,f
  2543  043B  2C35               	goto	u1655
  2544  043C  0823               	movf	??___fladd+3,w
  2545  043D  00F3               	movwf	___fladd@b+3
  2546  043E  0822               	movf	??___fladd+2,w
  2547  043F  00F2               	movwf	___fladd@b+2
  2548  0440  0821               	movf	??___fladd+1,w
  2549  0441  00F1               	movwf	___fladd@b+1
  2550  0442  0820               	movf	??___fladd,w
  2551  0443  00F0               	movwf	___fladd@b
  2552  0444  0A7A               	incf	___fladd@bexp,w
  2553  0445  1903               	btfsc	3,2
  2554  0446  2C48               	goto	u1661
  2555  0447  2C49               	goto	u1660
  2556  0448                     u1661:
  2557  0448  2C4D               	goto	l484
  2558  0449                     u1660:
  2559  0449                     l1367:
  2560  0449  3001               	movlw	1
  2561  044A  00A0               	movwf	??___fladd
  2562  044B  0820               	movf	??___fladd,w
  2563  044C  07FA               	addwf	___fladd@bexp,f
  2564  044D                     l484:
  2565  044D  0A7A               	incf	___fladd@bexp,w
  2566  044E  1903               	btfsc	3,2
  2567  044F  2C51               	goto	u1671
  2568  0450  2C52               	goto	u1670
  2569  0451                     u1671:
  2570  0451  2C57               	goto	l1371
  2571  0452                     u1670:
  2572  0452                     l1369:
  2573  0452  087A               	movf	___fladd@bexp,w
  2574  0453  1D03               	btfss	3,2
  2575  0454  2C56               	goto	u1681
  2576  0455  2C57               	goto	u1680
  2577  0456                     u1681:
  2578  0456  2C65               	goto	l1377
  2579  0457                     u1680:
  2580  0457                     l1371:
  2581  0457  3000               	movlw	0
  2582  0458  00F3               	movwf	___fladd@b+3
  2583  0459  3000               	movlw	0
  2584  045A  00F2               	movwf	___fladd@b+2
  2585  045B  3000               	movlw	0
  2586  045C  00F1               	movwf	___fladd@b+1
  2587  045D  3000               	movlw	0
  2588  045E  00F0               	movwf	___fladd@b
  2589  045F                     l1373:
  2590  045F  087A               	movf	___fladd@bexp,w
  2591  0460  1D03               	btfss	3,2
  2592  0461  2C63               	goto	u1691
  2593  0462  2C64               	goto	u1690
  2594  0463                     u1691:
  2595  0463  2C65               	goto	l1377
  2596  0464                     u1690:
  2597  0464                     l1375:
  2598  0464  01F8               	clrf	___fladd@signs
  2599  0465                     l1377:
  2600  0465  1C7A               	btfss	___fladd@bexp,0
  2601  0466  2C68               	goto	u1701
  2602  0467  2C69               	goto	u1700
  2603  0468                     u1701:
  2604  0468  2C6B               	goto	l1381
  2605  0469                     u1700:
  2606  0469                     l1379:
  2607  0469  17F2               	bsf	___fladd@b+2,7
  2608  046A  2C71               	goto	l492
  2609  046B                     l1381:
  2610  046B  307F               	movlw	127
  2611  046C  1283               	bcf	3,5	;RP0=0, select bank0
  2612  046D  1303               	bcf	3,6	;RP1=0, select bank0
  2613  046E  00A0               	movwf	??___fladd
  2614  046F  0820               	movf	??___fladd,w
  2615  0470  05F2               	andwf	___fladd@b+2,f
  2616  0471                     l492:
  2617  0471  087A               	movf	___fladd@bexp,w
  2618  0472  1283               	bcf	3,5	;RP0=0, select bank0
  2619  0473  1303               	bcf	3,6	;RP1=0, select bank0
  2620  0474  00A0               	movwf	??___fladd
  2621  0475  1003               	clrc
  2622  0476  0C20               	rrf	??___fladd,w
  2623  0477  00A1               	movwf	??___fladd+1
  2624  0478  0821               	movf	??___fladd+1,w
  2625  0479  00F3               	movwf	___fladd@b+3
  2626  047A                     l1383:
  2627  047A  1FF8               	btfss	___fladd@signs,7
  2628  047B  2C7D               	goto	u1711
  2629  047C  2C7E               	goto	u1710
  2630  047D                     u1711:
  2631  047D  2C7F               	goto	l493
  2632  047E                     u1710:
  2633  047E                     l1385:
  2634  047E  17F3               	bsf	___fladd@b+3,7
  2635  047F                     l493:
  2636  047F                     l463:
  2637  047F  0008               	return
  2638  0480                     __end_of___fladd:
  2639                           
  2640                           	psect	text8
  2641  0480                     __ptext8:	
  2642 ;; *************** function ___flmul *****************
  2643 ;; Defined at:
  2644 ;;		line 8 in file "C:\Program Files\Microchip\xc8\v2.31\pic\sources\c90\common\sprcmul.c"
  2645 ;; Parameters:    Size  Location     Type
  2646 ;;  b               4    0[BANK0 ] unsigned char 
  2647 ;;  a               4    4[BANK0 ] unsigned char 
  2648 ;; Auto vars:     Size  Location     Type
  2649 ;;  prod            4   20[BANK0 ] struct .
  2650 ;;  grs             4   14[BANK0 ] unsigned long 
  2651 ;;  temp            2   24[BANK0 ] struct .
  2652 ;;  bexp            1   19[BANK0 ] unsigned char 
  2653 ;;  aexp            1   18[BANK0 ] unsigned char 
  2654 ;;  sign            1   13[BANK0 ] unsigned char 
  2655 ;; Return value:  Size  Location     Type
  2656 ;;                  4    0[BANK0 ] unsigned char 
  2657 ;; Registers used:
  2658 ;;		wreg, status,2, status,0, btemp+1, pclath, cstack
  2659 ;; Tracked objects:
  2660 ;;		On entry : 0/0
  2661 ;;		On exit  : 0/0
  2662 ;;		Unchanged: 0/0
  2663 ;; Data sizes:     COMMON   BANK0   BANK1   BANK3   BANK2
  2664 ;;      Params:         0       8       0       0       0
  2665 ;;      Locals:         0      13       0       0       0
  2666 ;;      Temps:          0       5       0       0       0
  2667 ;;      Totals:         0      26       0       0       0
  2668 ;;Total ram usage:       26 bytes
  2669 ;; Hardware stack levels used:    1
  2670 ;; Hardware stack levels required when called:    1
  2671 ;; This function calls:
  2672 ;;		__Umul8_16
  2673 ;; This function is called by:
  2674 ;;		_SETSPEED
  2675 ;; This function uses a non-reentrant model
  2676 ;;
  2677                           
  2678                           
  2679                           ;psect for function ___flmul
  2680  0480                     ___flmul:
  2681  0480                     l1491:	
  2682                           ;incstack = 0
  2683                           ; Regs used in ___flmul: [wreg+status,2+status,0+btemp+1+pclath+cstack]
  2684                           
  2685  0480  1283               	bcf	3,5	;RP0=0, select bank0
  2686  0481  1303               	bcf	3,6	;RP1=0, select bank0
  2687  0482  0823               	movf	___flmul@b+3,w
  2688  0483  3980               	andlw	128
  2689  0484  00A8               	movwf	??___flmul
  2690  0485  0828               	movf	??___flmul,w
  2691  0486  00AD               	movwf	___flmul@sign
  2692  0487                     l1493:
  2693  0487  0823               	movf	___flmul@b+3,w
  2694  0488  00A8               	movwf	??___flmul
  2695  0489  0728               	addwf	??___flmul,w
  2696  048A  00A9               	movwf	??___flmul+1
  2697  048B  0829               	movf	??___flmul+1,w
  2698  048C  00B3               	movwf	___flmul@bexp
  2699  048D                     l1495:
  2700  048D  1FA2               	btfss	___flmul@b+2,7
  2701  048E  2C90               	goto	u1961
  2702  048F  2C91               	goto	u1960
  2703  0490                     u1961:
  2704  0490  2C92               	goto	l1499
  2705  0491                     u1960:
  2706  0491                     l1497:
  2707  0491  1433               	bsf	___flmul@bexp,0
  2708  0492                     l1499:
  2709  0492  0833               	movf	___flmul@bexp,w
  2710  0493  1903               	btfsc	3,2
  2711  0494  2C96               	goto	u1971
  2712  0495  2C97               	goto	u1970
  2713  0496                     u1971:
  2714  0496  2CA6               	goto	l1507
  2715  0497                     u1970:
  2716  0497                     l1501:
  2717  0497  0A33               	incf	___flmul@bexp,w
  2718  0498  1D03               	btfss	3,2
  2719  0499  2C9B               	goto	u1981
  2720  049A  2C9C               	goto	u1980
  2721  049B                     u1981:
  2722  049B  2CA4               	goto	l1505
  2723  049C                     u1980:
  2724  049C                     l1503:
  2725  049C  3000               	movlw	0
  2726  049D  00A3               	movwf	___flmul@b+3
  2727  049E  3000               	movlw	0
  2728  049F  00A2               	movwf	___flmul@b+2
  2729  04A0  3000               	movlw	0
  2730  04A1  00A1               	movwf	___flmul@b+1
  2731  04A2  3000               	movlw	0
  2732  04A3  00A0               	movwf	___flmul@b
  2733  04A4                     l1505:
  2734  04A4  17A2               	bsf	___flmul@b+2,7
  2735  04A5  2CAE               	goto	l1509
  2736  04A6                     l1507:
  2737  04A6  3000               	movlw	0
  2738  04A7  00A3               	movwf	___flmul@b+3
  2739  04A8  3000               	movlw	0
  2740  04A9  00A2               	movwf	___flmul@b+2
  2741  04AA  3000               	movlw	0
  2742  04AB  00A1               	movwf	___flmul@b+1
  2743  04AC  3000               	movlw	0
  2744  04AD  00A0               	movwf	___flmul@b
  2745  04AE                     l1509:
  2746  04AE  0827               	movf	___flmul@a+3,w
  2747  04AF  3980               	andlw	128
  2748  04B0  00A8               	movwf	??___flmul
  2749  04B1  0828               	movf	??___flmul,w
  2750  04B2  06AD               	xorwf	___flmul@sign,f
  2751  04B3                     l1511:
  2752  04B3  0827               	movf	___flmul@a+3,w
  2753  04B4  00A8               	movwf	??___flmul
  2754  04B5  0728               	addwf	??___flmul,w
  2755  04B6  00A9               	movwf	??___flmul+1
  2756  04B7  0829               	movf	??___flmul+1,w
  2757  04B8  00B2               	movwf	___flmul@aexp
  2758  04B9                     l1513:
  2759  04B9  1FA6               	btfss	___flmul@a+2,7
  2760  04BA  2CBC               	goto	u1991
  2761  04BB  2CBD               	goto	u1990
  2762  04BC                     u1991:
  2763  04BC  2CBE               	goto	l1517
  2764  04BD                     u1990:
  2765  04BD                     l1515:
  2766  04BD  1432               	bsf	___flmul@aexp,0
  2767  04BE                     l1517:
  2768  04BE  0832               	movf	___flmul@aexp,w
  2769  04BF  1903               	btfsc	3,2
  2770  04C0  2CC2               	goto	u2001
  2771  04C1  2CC3               	goto	u2000
  2772  04C2                     u2001:
  2773  04C2  2CD2               	goto	l1525
  2774  04C3                     u2000:
  2775  04C3                     l1519:
  2776  04C3  0A32               	incf	___flmul@aexp,w
  2777  04C4  1D03               	btfss	3,2
  2778  04C5  2CC7               	goto	u2011
  2779  04C6  2CC8               	goto	u2010
  2780  04C7                     u2011:
  2781  04C7  2CD0               	goto	l1523
  2782  04C8                     u2010:
  2783  04C8                     l1521:
  2784  04C8  3000               	movlw	0
  2785  04C9  00A7               	movwf	___flmul@a+3
  2786  04CA  3000               	movlw	0
  2787  04CB  00A6               	movwf	___flmul@a+2
  2788  04CC  3000               	movlw	0
  2789  04CD  00A5               	movwf	___flmul@a+1
  2790  04CE  3000               	movlw	0
  2791  04CF  00A4               	movwf	___flmul@a
  2792  04D0                     l1523:
  2793  04D0  17A6               	bsf	___flmul@a+2,7
  2794  04D1  2CDA               	goto	l1527
  2795  04D2                     l1525:
  2796  04D2  3000               	movlw	0
  2797  04D3  00A7               	movwf	___flmul@a+3
  2798  04D4  3000               	movlw	0
  2799  04D5  00A6               	movwf	___flmul@a+2
  2800  04D6  3000               	movlw	0
  2801  04D7  00A5               	movwf	___flmul@a+1
  2802  04D8  3000               	movlw	0
  2803  04D9  00A4               	movwf	___flmul@a
  2804  04DA                     l1527:
  2805  04DA  0832               	movf	___flmul@aexp,w
  2806  04DB  1903               	btfsc	3,2
  2807  04DC  2CDE               	goto	u2021
  2808  04DD  2CDF               	goto	u2020
  2809  04DE                     u2021:
  2810  04DE  2CE4               	goto	l1531
  2811  04DF                     u2020:
  2812  04DF                     l1529:
  2813  04DF  0833               	movf	___flmul@bexp,w
  2814  04E0  1D03               	btfss	3,2
  2815  04E1  2CE3               	goto	u2031
  2816  04E2  2CE4               	goto	u2030
  2817  04E3                     u2031:
  2818  04E3  2CED               	goto	l1535
  2819  04E4                     u2030:
  2820  04E4                     l1531:
  2821  04E4  3000               	movlw	0
  2822  04E5  00A3               	movwf	?___flmul+3
  2823  04E6  3000               	movlw	0
  2824  04E7  00A2               	movwf	?___flmul+2
  2825  04E8  3000               	movlw	0
  2826  04E9  00A1               	movwf	?___flmul+1
  2827  04EA  3000               	movlw	0
  2828  04EB  00A0               	movwf	?___flmul
  2829  04EC  2FE0               	goto	l546
  2830  04ED                     l1535:
  2831  04ED  0820               	movf	___flmul@b,w
  2832  04EE  00A8               	movwf	??___flmul
  2833  04EF  0828               	movf	??___flmul,w
  2834  04F0  00F0               	movwf	__Umul8_16@multiplicand
  2835  04F1  0826               	movf	___flmul@a+2,w
  2836  04F2  120A  118A  2016  120A  118A  	fcall	__Umul8_16
  2837  04F7  0871               	movf	?__Umul8_16+1,w
  2838  04F8  1283               	bcf	3,5	;RP0=0, select bank0
  2839  04F9  1303               	bcf	3,6	;RP1=0, select bank0
  2840  04FA  00B9               	movwf	___flmul@temp+1
  2841  04FB  0870               	movf	?__Umul8_16,w
  2842  04FC  00B8               	movwf	___flmul@temp
  2843  04FD                     l1537:
  2844  04FD  0838               	movf	___flmul@temp,w
  2845  04FE  00A8               	movwf	??___flmul
  2846  04FF  01A9               	clrf	??___flmul+1
  2847  0500  01AA               	clrf	??___flmul+2
  2848  0501  01AB               	clrf	??___flmul+3
  2849  0502  082B               	movf	??___flmul+3,w
  2850  0503  00B1               	movwf	___flmul@grs+3
  2851  0504  082A               	movf	??___flmul+2,w
  2852  0505  00B0               	movwf	___flmul@grs+2
  2853  0506  0829               	movf	??___flmul+1,w
  2854  0507  00AF               	movwf	___flmul@grs+1
  2855  0508  0828               	movf	??___flmul,w
  2856  0509  00AE               	movwf	___flmul@grs
  2857  050A                     l1539:
  2858  050A  0839               	movf	___flmul@temp+1,w
  2859  050B  00A8               	movwf	??___flmul
  2860  050C  01A9               	clrf	??___flmul+1
  2861  050D  01AA               	clrf	??___flmul+2
  2862  050E  01AB               	clrf	??___flmul+3
  2863  050F  082B               	movf	??___flmul+3,w
  2864  0510  00B7               	movwf	___flmul@prod+3
  2865  0511  082A               	movf	??___flmul+2,w
  2866  0512  00B6               	movwf	___flmul@prod+2
  2867  0513  0829               	movf	??___flmul+1,w
  2868  0514  00B5               	movwf	___flmul@prod+1
  2869  0515  0828               	movf	??___flmul,w
  2870  0516  00B4               	movwf	___flmul@prod
  2871  0517  0821               	movf	___flmul@b+1,w
  2872  0518  00A8               	movwf	??___flmul
  2873  0519  0828               	movf	??___flmul,w
  2874  051A  00F0               	movwf	__Umul8_16@multiplicand
  2875  051B  0825               	movf	___flmul@a+1,w
  2876  051C  120A  118A  2016  120A  118A  	fcall	__Umul8_16
  2877  0521  0871               	movf	?__Umul8_16+1,w
  2878  0522  1283               	bcf	3,5	;RP0=0, select bank0
  2879  0523  1303               	bcf	3,6	;RP1=0, select bank0
  2880  0524  00B9               	movwf	___flmul@temp+1
  2881  0525  0870               	movf	?__Umul8_16,w
  2882  0526  00B8               	movwf	___flmul@temp
  2883  0527                     l1541:
  2884  0527  0838               	movf	___flmul@temp,w
  2885  0528  00A8               	movwf	??___flmul
  2886  0529  01A9               	clrf	??___flmul+1
  2887  052A  01AA               	clrf	??___flmul+2
  2888  052B  01AB               	clrf	??___flmul+3
  2889  052C  0828               	movf	??___flmul,w
  2890  052D  07AE               	addwf	___flmul@grs,f
  2891  052E  0829               	movf	??___flmul+1,w
  2892  052F  1103               	clrz
  2893  0530  1803               	skipnc
  2894  0531  3E01               	addlw	1
  2895  0532  1903               	skipnz
  2896  0533  2D35               	goto	u2041
  2897  0534  07AF               	addwf	___flmul@grs+1,f
  2898  0535                     u2041:
  2899  0535  082A               	movf	??___flmul+2,w
  2900  0536  1103               	clrz
  2901  0537  1803               	skipnc
  2902  0538  3E01               	addlw	1
  2903  0539  1903               	skipnz
  2904  053A  2D3C               	goto	u2042
  2905  053B  07B0               	addwf	___flmul@grs+2,f
  2906  053C                     u2042:
  2907  053C  082B               	movf	??___flmul+3,w
  2908  053D  1103               	clrz
  2909  053E  1803               	skipnc
  2910  053F  3E01               	addlw	1
  2911  0540  1903               	skipnz
  2912  0541  2D43               	goto	u2043
  2913  0542  07B1               	addwf	___flmul@grs+3,f
  2914  0543                     u2043:
  2915  0543                     l1543:
  2916  0543  0839               	movf	___flmul@temp+1,w
  2917  0544  00A8               	movwf	??___flmul
  2918  0545  01A9               	clrf	??___flmul+1
  2919  0546  01AA               	clrf	??___flmul+2
  2920  0547  01AB               	clrf	??___flmul+3
  2921  0548  0828               	movf	??___flmul,w
  2922  0549  07B4               	addwf	___flmul@prod,f
  2923  054A  0829               	movf	??___flmul+1,w
  2924  054B  1103               	clrz
  2925  054C  1803               	skipnc
  2926  054D  3E01               	addlw	1
  2927  054E  1903               	skipnz
  2928  054F  2D51               	goto	u2051
  2929  0550  07B5               	addwf	___flmul@prod+1,f
  2930  0551                     u2051:
  2931  0551  082A               	movf	??___flmul+2,w
  2932  0552  1103               	clrz
  2933  0553  1803               	skipnc
  2934  0554  3E01               	addlw	1
  2935  0555  1903               	skipnz
  2936  0556  2D58               	goto	u2052
  2937  0557  07B6               	addwf	___flmul@prod+2,f
  2938  0558                     u2052:
  2939  0558  082B               	movf	??___flmul+3,w
  2940  0559  1103               	clrz
  2941  055A  1803               	skipnc
  2942  055B  3E01               	addlw	1
  2943  055C  1903               	skipnz
  2944  055D  2D5F               	goto	u2053
  2945  055E  07B7               	addwf	___flmul@prod+3,f
  2946  055F                     u2053:
  2947  055F  0822               	movf	___flmul@b+2,w
  2948  0560  00A8               	movwf	??___flmul
  2949  0561  0828               	movf	??___flmul,w
  2950  0562  00F0               	movwf	__Umul8_16@multiplicand
  2951  0563  0824               	movf	___flmul@a,w
  2952  0564  120A  118A  2016  120A  118A  	fcall	__Umul8_16
  2953  0569  0871               	movf	?__Umul8_16+1,w
  2954  056A  1283               	bcf	3,5	;RP0=0, select bank0
  2955  056B  1303               	bcf	3,6	;RP1=0, select bank0
  2956  056C  00B9               	movwf	___flmul@temp+1
  2957  056D  0870               	movf	?__Umul8_16,w
  2958  056E  00B8               	movwf	___flmul@temp
  2959  056F                     l1545:
  2960  056F  0838               	movf	___flmul@temp,w
  2961  0570  00A8               	movwf	??___flmul
  2962  0571  01A9               	clrf	??___flmul+1
  2963  0572  01AA               	clrf	??___flmul+2
  2964  0573  01AB               	clrf	??___flmul+3
  2965  0574  0828               	movf	??___flmul,w
  2966  0575  07AE               	addwf	___flmul@grs,f
  2967  0576  0829               	movf	??___flmul+1,w
  2968  0577  1103               	clrz
  2969  0578  1803               	skipnc
  2970  0579  3E01               	addlw	1
  2971  057A  1903               	skipnz
  2972  057B  2D7D               	goto	u2061
  2973  057C  07AF               	addwf	___flmul@grs+1,f
  2974  057D                     u2061:
  2975  057D  082A               	movf	??___flmul+2,w
  2976  057E  1103               	clrz
  2977  057F  1803               	skipnc
  2978  0580  3E01               	addlw	1
  2979  0581  1903               	skipnz
  2980  0582  2D84               	goto	u2062
  2981  0583  07B0               	addwf	___flmul@grs+2,f
  2982  0584                     u2062:
  2983  0584  082B               	movf	??___flmul+3,w
  2984  0585  1103               	clrz
  2985  0586  1803               	skipnc
  2986  0587  3E01               	addlw	1
  2987  0588  1903               	skipnz
  2988  0589  2D8B               	goto	u2063
  2989  058A  07B1               	addwf	___flmul@grs+3,f
  2990  058B                     u2063:
  2991  058B                     l1547:
  2992  058B  0839               	movf	___flmul@temp+1,w
  2993  058C  00A8               	movwf	??___flmul
  2994  058D  01A9               	clrf	??___flmul+1
  2995  058E  01AA               	clrf	??___flmul+2
  2996  058F  01AB               	clrf	??___flmul+3
  2997  0590  0828               	movf	??___flmul,w
  2998  0591  07B4               	addwf	___flmul@prod,f
  2999  0592  0829               	movf	??___flmul+1,w
  3000  0593  1103               	clrz
  3001  0594  1803               	skipnc
  3002  0595  3E01               	addlw	1
  3003  0596  1903               	skipnz
  3004  0597  2D99               	goto	u2071
  3005  0598  07B5               	addwf	___flmul@prod+1,f
  3006  0599                     u2071:
  3007  0599  082A               	movf	??___flmul+2,w
  3008  059A  1103               	clrz
  3009  059B  1803               	skipnc
  3010  059C  3E01               	addlw	1
  3011  059D  1903               	skipnz
  3012  059E  2DA0               	goto	u2072
  3013  059F  07B6               	addwf	___flmul@prod+2,f
  3014  05A0                     u2072:
  3015  05A0  082B               	movf	??___flmul+3,w
  3016  05A1  1103               	clrz
  3017  05A2  1803               	skipnc
  3018  05A3  3E01               	addlw	1
  3019  05A4  1903               	skipnz
  3020  05A5  2DA7               	goto	u2073
  3021  05A6  07B7               	addwf	___flmul@prod+3,f
  3022  05A7                     u2073:
  3023  05A7                     l1549:
  3024  05A7  3008               	movlw	8
  3025  05A8  00A8               	movwf	??___flmul
  3026  05A9                     u2085:
  3027  05A9  1003               	clrc
  3028  05AA  0DAE               	rlf	___flmul@grs,f
  3029  05AB  0DAF               	rlf	___flmul@grs+1,f
  3030  05AC  0DB0               	rlf	___flmul@grs+2,f
  3031  05AD  0DB1               	rlf	___flmul@grs+3,f
  3032  05AE  0BA8               	decfsz	??___flmul,f
  3033  05AF  2DA9               	goto	u2085
  3034  05B0                     l1551:
  3035  05B0  0821               	movf	___flmul@b+1,w
  3036  05B1  00A8               	movwf	??___flmul
  3037  05B2  0828               	movf	??___flmul,w
  3038  05B3  00F0               	movwf	__Umul8_16@multiplicand
  3039  05B4  0824               	movf	___flmul@a,w
  3040  05B5  120A  118A  2016  120A  118A  	fcall	__Umul8_16
  3041  05BA  0871               	movf	?__Umul8_16+1,w
  3042  05BB  1283               	bcf	3,5	;RP0=0, select bank0
  3043  05BC  1303               	bcf	3,6	;RP1=0, select bank0
  3044  05BD  00B9               	movwf	___flmul@temp+1
  3045  05BE  0870               	movf	?__Umul8_16,w
  3046  05BF  00B8               	movwf	___flmul@temp
  3047  05C0                     l1553:
  3048  05C0  0838               	movf	___flmul@temp,w
  3049  05C1  00A8               	movwf	??___flmul
  3050  05C2  0839               	movf	___flmul@temp+1,w
  3051  05C3  00A9               	movwf	??___flmul+1
  3052  05C4  01AA               	clrf	??___flmul+2
  3053  05C5  01AB               	clrf	??___flmul+3
  3054  05C6  0828               	movf	??___flmul,w
  3055  05C7  07AE               	addwf	___flmul@grs,f
  3056  05C8  0829               	movf	??___flmul+1,w
  3057  05C9  1103               	clrz
  3058  05CA  1803               	skipnc
  3059  05CB  3E01               	addlw	1
  3060  05CC  1903               	skipnz
  3061  05CD  2DCF               	goto	u2091
  3062  05CE  07AF               	addwf	___flmul@grs+1,f
  3063  05CF                     u2091:
  3064  05CF  082A               	movf	??___flmul+2,w
  3065  05D0  1103               	clrz
  3066  05D1  1803               	skipnc
  3067  05D2  3E01               	addlw	1
  3068  05D3  1903               	skipnz
  3069  05D4  2DD6               	goto	u2092
  3070  05D5  07B0               	addwf	___flmul@grs+2,f
  3071  05D6                     u2092:
  3072  05D6  082B               	movf	??___flmul+3,w
  3073  05D7  1103               	clrz
  3074  05D8  1803               	skipnc
  3075  05D9  3E01               	addlw	1
  3076  05DA  1903               	skipnz
  3077  05DB  2DDD               	goto	u2093
  3078  05DC  07B1               	addwf	___flmul@grs+3,f
  3079  05DD                     u2093:
  3080  05DD                     l1555:
  3081  05DD  0820               	movf	___flmul@b,w
  3082  05DE  00A8               	movwf	??___flmul
  3083  05DF  0828               	movf	??___flmul,w
  3084  05E0  00F0               	movwf	__Umul8_16@multiplicand
  3085  05E1  0825               	movf	___flmul@a+1,w
  3086  05E2  120A  118A  2016  120A  118A  	fcall	__Umul8_16
  3087  05E7  0871               	movf	?__Umul8_16+1,w
  3088  05E8  1283               	bcf	3,5	;RP0=0, select bank0
  3089  05E9  1303               	bcf	3,6	;RP1=0, select bank0
  3090  05EA  00B9               	movwf	___flmul@temp+1
  3091  05EB  0870               	movf	?__Umul8_16,w
  3092  05EC  00B8               	movwf	___flmul@temp
  3093  05ED                     l1557:
  3094  05ED  0838               	movf	___flmul@temp,w
  3095  05EE  00A8               	movwf	??___flmul
  3096  05EF  0839               	movf	___flmul@temp+1,w
  3097  05F0  00A9               	movwf	??___flmul+1
  3098  05F1  01AA               	clrf	??___flmul+2
  3099  05F2  01AB               	clrf	??___flmul+3
  3100  05F3  0828               	movf	??___flmul,w
  3101  05F4  07AE               	addwf	___flmul@grs,f
  3102  05F5  0829               	movf	??___flmul+1,w
  3103  05F6  1103               	clrz
  3104  05F7  1803               	skipnc
  3105  05F8  3E01               	addlw	1
  3106  05F9  1903               	skipnz
  3107  05FA  2DFC               	goto	u2101
  3108  05FB  07AF               	addwf	___flmul@grs+1,f
  3109  05FC                     u2101:
  3110  05FC  082A               	movf	??___flmul+2,w
  3111  05FD  1103               	clrz
  3112  05FE  1803               	skipnc
  3113  05FF  3E01               	addlw	1
  3114  0600  1903               	skipnz
  3115  0601  2E03               	goto	u2102
  3116  0602  07B0               	addwf	___flmul@grs+2,f
  3117  0603                     u2102:
  3118  0603  082B               	movf	??___flmul+3,w
  3119  0604  1103               	clrz
  3120  0605  1803               	skipnc
  3121  0606  3E01               	addlw	1
  3122  0607  1903               	skipnz
  3123  0608  2E0A               	goto	u2103
  3124  0609  07B1               	addwf	___flmul@grs+3,f
  3125  060A                     u2103:
  3126  060A                     l1559:
  3127  060A  3008               	movlw	8
  3128  060B  00A8               	movwf	??___flmul
  3129  060C                     u2115:
  3130  060C  1003               	clrc
  3131  060D  0DAE               	rlf	___flmul@grs,f
  3132  060E  0DAF               	rlf	___flmul@grs+1,f
  3133  060F  0DB0               	rlf	___flmul@grs+2,f
  3134  0610  0DB1               	rlf	___flmul@grs+3,f
  3135  0611  0BA8               	decfsz	??___flmul,f
  3136  0612  2E0C               	goto	u2115
  3137  0613  0820               	movf	___flmul@b,w
  3138  0614  00A8               	movwf	??___flmul
  3139  0615  0828               	movf	??___flmul,w
  3140  0616  00F0               	movwf	__Umul8_16@multiplicand
  3141  0617  0824               	movf	___flmul@a,w
  3142  0618  120A  118A  2016  120A  118A  	fcall	__Umul8_16
  3143  061D  0871               	movf	?__Umul8_16+1,w
  3144  061E  1283               	bcf	3,5	;RP0=0, select bank0
  3145  061F  1303               	bcf	3,6	;RP1=0, select bank0
  3146  0620  00B9               	movwf	___flmul@temp+1
  3147  0621  0870               	movf	?__Umul8_16,w
  3148  0622  00B8               	movwf	___flmul@temp
  3149  0623                     l1561:
  3150  0623  0838               	movf	___flmul@temp,w
  3151  0624  00A8               	movwf	??___flmul
  3152  0625  0839               	movf	___flmul@temp+1,w
  3153  0626  00A9               	movwf	??___flmul+1
  3154  0627  01AA               	clrf	??___flmul+2
  3155  0628  01AB               	clrf	??___flmul+3
  3156  0629  0828               	movf	??___flmul,w
  3157  062A  07AE               	addwf	___flmul@grs,f
  3158  062B  0829               	movf	??___flmul+1,w
  3159  062C  1103               	clrz
  3160  062D  1803               	skipnc
  3161  062E  3E01               	addlw	1
  3162  062F  1903               	skipnz
  3163  0630  2E32               	goto	u2121
  3164  0631  07AF               	addwf	___flmul@grs+1,f
  3165  0632                     u2121:
  3166  0632  082A               	movf	??___flmul+2,w
  3167  0633  1103               	clrz
  3168  0634  1803               	skipnc
  3169  0635  3E01               	addlw	1
  3170  0636  1903               	skipnz
  3171  0637  2E39               	goto	u2122
  3172  0638  07B0               	addwf	___flmul@grs+2,f
  3173  0639                     u2122:
  3174  0639  082B               	movf	??___flmul+3,w
  3175  063A  1103               	clrz
  3176  063B  1803               	skipnc
  3177  063C  3E01               	addlw	1
  3178  063D  1903               	skipnz
  3179  063E  2E40               	goto	u2123
  3180  063F  07B1               	addwf	___flmul@grs+3,f
  3181  0640                     u2123:
  3182  0640                     l1563:
  3183  0640  0821               	movf	___flmul@b+1,w
  3184  0641  00A8               	movwf	??___flmul
  3185  0642  0828               	movf	??___flmul,w
  3186  0643  00F0               	movwf	__Umul8_16@multiplicand
  3187  0644  0826               	movf	___flmul@a+2,w
  3188  0645  120A  118A  2016  120A  118A  	fcall	__Umul8_16
  3189  064A  0871               	movf	?__Umul8_16+1,w
  3190  064B  1283               	bcf	3,5	;RP0=0, select bank0
  3191  064C  1303               	bcf	3,6	;RP1=0, select bank0
  3192  064D  00B9               	movwf	___flmul@temp+1
  3193  064E  0870               	movf	?__Umul8_16,w
  3194  064F  00B8               	movwf	___flmul@temp
  3195  0650  0838               	movf	___flmul@temp,w
  3196  0651  00A8               	movwf	??___flmul
  3197  0652  0839               	movf	___flmul@temp+1,w
  3198  0653  00A9               	movwf	??___flmul+1
  3199  0654  01AA               	clrf	??___flmul+2
  3200  0655  01AB               	clrf	??___flmul+3
  3201  0656  0828               	movf	??___flmul,w
  3202  0657  07B4               	addwf	___flmul@prod,f
  3203  0658  0829               	movf	??___flmul+1,w
  3204  0659  1103               	clrz
  3205  065A  1803               	skipnc
  3206  065B  3E01               	addlw	1
  3207  065C  1903               	skipnz
  3208  065D  2E5F               	goto	u2131
  3209  065E  07B5               	addwf	___flmul@prod+1,f
  3210  065F                     u2131:
  3211  065F  082A               	movf	??___flmul+2,w
  3212  0660  1103               	clrz
  3213  0661  1803               	skipnc
  3214  0662  3E01               	addlw	1
  3215  0663  1903               	skipnz
  3216  0664  2E66               	goto	u2132
  3217  0665  07B6               	addwf	___flmul@prod+2,f
  3218  0666                     u2132:
  3219  0666  082B               	movf	??___flmul+3,w
  3220  0667  1103               	clrz
  3221  0668  1803               	skipnc
  3222  0669  3E01               	addlw	1
  3223  066A  1903               	skipnz
  3224  066B  2E6D               	goto	u2133
  3225  066C  07B7               	addwf	___flmul@prod+3,f
  3226  066D                     u2133:
  3227  066D                     l1565:
  3228  066D  0822               	movf	___flmul@b+2,w
  3229  066E  00A8               	movwf	??___flmul
  3230  066F  0828               	movf	??___flmul,w
  3231  0670  00F0               	movwf	__Umul8_16@multiplicand
  3232  0671  0825               	movf	___flmul@a+1,w
  3233  0672  120A  118A  2016  120A  118A  	fcall	__Umul8_16
  3234  0677  0871               	movf	?__Umul8_16+1,w
  3235  0678  1283               	bcf	3,5	;RP0=0, select bank0
  3236  0679  1303               	bcf	3,6	;RP1=0, select bank0
  3237  067A  00B9               	movwf	___flmul@temp+1
  3238  067B  0870               	movf	?__Umul8_16,w
  3239  067C  00B8               	movwf	___flmul@temp
  3240  067D                     l1567:
  3241  067D  0838               	movf	___flmul@temp,w
  3242  067E  00A8               	movwf	??___flmul
  3243  067F  0839               	movf	___flmul@temp+1,w
  3244  0680  00A9               	movwf	??___flmul+1
  3245  0681  01AA               	clrf	??___flmul+2
  3246  0682  01AB               	clrf	??___flmul+3
  3247  0683  0828               	movf	??___flmul,w
  3248  0684  07B4               	addwf	___flmul@prod,f
  3249  0685  0829               	movf	??___flmul+1,w
  3250  0686  1103               	clrz
  3251  0687  1803               	skipnc
  3252  0688  3E01               	addlw	1
  3253  0689  1903               	skipnz
  3254  068A  2E8C               	goto	u2141
  3255  068B  07B5               	addwf	___flmul@prod+1,f
  3256  068C                     u2141:
  3257  068C  082A               	movf	??___flmul+2,w
  3258  068D  1103               	clrz
  3259  068E  1803               	skipnc
  3260  068F  3E01               	addlw	1
  3261  0690  1903               	skipnz
  3262  0691  2E93               	goto	u2142
  3263  0692  07B6               	addwf	___flmul@prod+2,f
  3264  0693                     u2142:
  3265  0693  082B               	movf	??___flmul+3,w
  3266  0694  1103               	clrz
  3267  0695  1803               	skipnc
  3268  0696  3E01               	addlw	1
  3269  0697  1903               	skipnz
  3270  0698  2E9A               	goto	u2143
  3271  0699  07B7               	addwf	___flmul@prod+3,f
  3272  069A                     u2143:
  3273  069A  0822               	movf	___flmul@b+2,w
  3274  069B  00A8               	movwf	??___flmul
  3275  069C  0828               	movf	??___flmul,w
  3276  069D  00F0               	movwf	__Umul8_16@multiplicand
  3277  069E  0826               	movf	___flmul@a+2,w
  3278  069F  120A  118A  2016  120A  118A  	fcall	__Umul8_16
  3279  06A4  0871               	movf	?__Umul8_16+1,w
  3280  06A5  1283               	bcf	3,5	;RP0=0, select bank0
  3281  06A6  1303               	bcf	3,6	;RP1=0, select bank0
  3282  06A7  00B9               	movwf	___flmul@temp+1
  3283  06A8  0870               	movf	?__Umul8_16,w
  3284  06A9  00B8               	movwf	___flmul@temp
  3285  06AA                     l1569:
  3286  06AA  0838               	movf	___flmul@temp,w
  3287  06AB  00A8               	movwf	??___flmul
  3288  06AC  0839               	movf	___flmul@temp+1,w
  3289  06AD  00A9               	movwf	??___flmul+1
  3290  06AE  01AA               	clrf	??___flmul+2
  3291  06AF  01AB               	clrf	??___flmul+3
  3292  06B0  3008               	movlw	8
  3293  06B1                     u2155:
  3294  06B1  1003               	clrc
  3295  06B2  0DA8               	rlf	??___flmul,f
  3296  06B3  0DA9               	rlf	??___flmul+1,f
  3297  06B4  0DAA               	rlf	??___flmul+2,f
  3298  06B5  0DAB               	rlf	??___flmul+3,f
  3299  06B6                     u2150:
  3300  06B6  3EFF               	addlw	-1
  3301  06B7  1D03               	skipz
  3302  06B8  2EB1               	goto	u2155
  3303  06B9  0828               	movf	??___flmul,w
  3304  06BA  07B4               	addwf	___flmul@prod,f
  3305  06BB  0829               	movf	??___flmul+1,w
  3306  06BC  1103               	clrz
  3307  06BD  1803               	skipnc
  3308  06BE  3E01               	addlw	1
  3309  06BF  1903               	skipnz
  3310  06C0  2EC2               	goto	u2161
  3311  06C1  07B5               	addwf	___flmul@prod+1,f
  3312  06C2                     u2161:
  3313  06C2  082A               	movf	??___flmul+2,w
  3314  06C3  1103               	clrz
  3315  06C4  1803               	skipnc
  3316  06C5  3E01               	addlw	1
  3317  06C6  1903               	skipnz
  3318  06C7  2EC9               	goto	u2162
  3319  06C8  07B6               	addwf	___flmul@prod+2,f
  3320  06C9                     u2162:
  3321  06C9  082B               	movf	??___flmul+3,w
  3322  06CA  1103               	clrz
  3323  06CB  1803               	skipnc
  3324  06CC  3E01               	addlw	1
  3325  06CD  1903               	skipnz
  3326  06CE  2ED0               	goto	u2163
  3327  06CF  07B7               	addwf	___flmul@prod+3,f
  3328  06D0                     u2163:
  3329  06D0                     l1571:
  3330  06D0  082E               	movf	___flmul@grs,w
  3331  06D1  00A8               	movwf	??___flmul
  3332  06D2  082F               	movf	___flmul@grs+1,w
  3333  06D3  00A9               	movwf	??___flmul+1
  3334  06D4  0830               	movf	___flmul@grs+2,w
  3335  06D5  00AA               	movwf	??___flmul+2
  3336  06D6  0831               	movf	___flmul@grs+3,w
  3337  06D7  00AB               	movwf	??___flmul+3
  3338  06D8  3018               	movlw	24
  3339  06D9                     u2175:
  3340  06D9  1003               	clrc
  3341  06DA  0CAB               	rrf	??___flmul+3,f
  3342  06DB  0CAA               	rrf	??___flmul+2,f
  3343  06DC  0CA9               	rrf	??___flmul+1,f
  3344  06DD  0CA8               	rrf	??___flmul,f
  3345  06DE                     u2170:
  3346  06DE  3EFF               	addlw	-1
  3347  06DF  1D03               	skipz
  3348  06E0  2ED9               	goto	u2175
  3349  06E1  0828               	movf	??___flmul,w
  3350  06E2  07B4               	addwf	___flmul@prod,f
  3351  06E3  0829               	movf	??___flmul+1,w
  3352  06E4  1103               	clrz
  3353  06E5  1803               	skipnc
  3354  06E6  3E01               	addlw	1
  3355  06E7  1903               	skipnz
  3356  06E8  2EEA               	goto	u2181
  3357  06E9  07B5               	addwf	___flmul@prod+1,f
  3358  06EA                     u2181:
  3359  06EA  082A               	movf	??___flmul+2,w
  3360  06EB  1103               	clrz
  3361  06EC  1803               	skipnc
  3362  06ED  3E01               	addlw	1
  3363  06EE  1903               	skipnz
  3364  06EF  2EF1               	goto	u2182
  3365  06F0  07B6               	addwf	___flmul@prod+2,f
  3366  06F1                     u2182:
  3367  06F1  082B               	movf	??___flmul+3,w
  3368  06F2  1103               	clrz
  3369  06F3  1803               	skipnc
  3370  06F4  3E01               	addlw	1
  3371  06F5  1903               	skipnz
  3372  06F6  2EF8               	goto	u2183
  3373  06F7  07B7               	addwf	___flmul@prod+3,f
  3374  06F8                     u2183:
  3375  06F8                     l1573:
  3376  06F8  3008               	movlw	8
  3377  06F9  00A8               	movwf	??___flmul
  3378  06FA                     u2195:
  3379  06FA  1003               	clrc
  3380  06FB  0DAE               	rlf	___flmul@grs,f
  3381  06FC  0DAF               	rlf	___flmul@grs+1,f
  3382  06FD  0DB0               	rlf	___flmul@grs+2,f
  3383  06FE  0DB1               	rlf	___flmul@grs+3,f
  3384  06FF  0BA8               	decfsz	??___flmul,f
  3385  0700  2EFA               	goto	u2195
  3386  0701                     l1575:
  3387  0701  0833               	movf	___flmul@bexp,w
  3388  0702  0732               	addwf	___flmul@aexp,w
  3389  0703  00A8               	movwf	??___flmul
  3390  0704  01A9               	clrf	??___flmul+1
  3391  0705  0DA9               	rlf	??___flmul+1,f
  3392  0706  0828               	movf	??___flmul,w
  3393  0707  3E82               	addlw	130
  3394  0708  00B8               	movwf	___flmul@temp
  3395  0709  0829               	movf	??___flmul+1,w
  3396  070A  1803               	skipnc
  3397  070B  3E01               	addlw	1
  3398  070C  3EFF               	addlw	255
  3399  070D  00B9               	movwf	___flmul@temp+1
  3400  070E  2F2C               	goto	l1587
  3401  070F                     l1577:
  3402  070F  3001               	movlw	1
  3403  0710  00A8               	movwf	??___flmul
  3404  0711                     u2205:
  3405  0711  1003               	clrc
  3406  0712  0DB4               	rlf	___flmul@prod,f
  3407  0713  0DB5               	rlf	___flmul@prod+1,f
  3408  0714  0DB6               	rlf	___flmul@prod+2,f
  3409  0715  0DB7               	rlf	___flmul@prod+3,f
  3410  0716  0BA8               	decfsz	??___flmul,f
  3411  0717  2F11               	goto	u2205
  3412  0718                     l1579:
  3413  0718  1FB1               	btfss	___flmul@grs+3,7
  3414  0719  2F1B               	goto	u2211
  3415  071A  2F1C               	goto	u2210
  3416  071B                     u2211:
  3417  071B  2F1D               	goto	l1583
  3418  071C                     u2210:
  3419  071C                     l1581:
  3420  071C  1434               	bsf	___flmul@prod,0
  3421  071D                     l1583:
  3422  071D  3001               	movlw	1
  3423  071E  00A8               	movwf	??___flmul
  3424  071F                     u2225:
  3425  071F  1003               	clrc
  3426  0720  0DAE               	rlf	___flmul@grs,f
  3427  0721  0DAF               	rlf	___flmul@grs+1,f
  3428  0722  0DB0               	rlf	___flmul@grs+2,f
  3429  0723  0DB1               	rlf	___flmul@grs+3,f
  3430  0724  0BA8               	decfsz	??___flmul,f
  3431  0725  2F1F               	goto	u2225
  3432  0726                     l1585:
  3433  0726  30FF               	movlw	255
  3434  0727  07B8               	addwf	___flmul@temp,f
  3435  0728  1803               	skipnc
  3436  0729  0AB9               	incf	___flmul@temp+1,f
  3437  072A  30FF               	movlw	255
  3438  072B  07B9               	addwf	___flmul@temp+1,f
  3439  072C                     l1587:
  3440  072C  1FB6               	btfss	___flmul@prod+2,7
  3441  072D  2F2F               	goto	u2231
  3442  072E  2F30               	goto	u2230
  3443  072F                     u2231:
  3444  072F  2F0F               	goto	l1577
  3445  0730                     u2230:
  3446  0730                     l1589:
  3447  0730  01B2               	clrf	___flmul@aexp
  3448  0731                     l1591:
  3449  0731  1FB1               	btfss	___flmul@grs+3,7
  3450  0732  2F34               	goto	u2241
  3451  0733  2F35               	goto	u2240
  3452  0734                     u2241:
  3453  0734  2F51               	goto	l1599
  3454  0735                     u2240:
  3455  0735                     l1593:
  3456  0735  30FF               	movlw	255
  3457  0736  052E               	andwf	___flmul@grs,w
  3458  0737  00A8               	movwf	??___flmul
  3459  0738  30FF               	movlw	255
  3460  0739  052F               	andwf	___flmul@grs+1,w
  3461  073A  00A9               	movwf	??___flmul+1
  3462  073B  30FF               	movlw	255
  3463  073C  0530               	andwf	___flmul@grs+2,w
  3464  073D  00AA               	movwf	??___flmul+2
  3465  073E  307F               	movlw	127
  3466  073F  0531               	andwf	___flmul@grs+3,w
  3467  0740  00AB               	movwf	??___flmul+3
  3468  0741  082B               	movf	??___flmul+3,w
  3469  0742  042A               	iorwf	??___flmul+2,w
  3470  0743  0429               	iorwf	??___flmul+1,w
  3471  0744  0428               	iorwf	??___flmul,w
  3472  0745  1903               	skipnz
  3473  0746  2F48               	goto	u2251
  3474  0747  2F49               	goto	u2250
  3475  0748                     u2251:
  3476  0748  2F4C               	goto	l552
  3477  0749                     u2250:
  3478  0749                     l1595:
  3479  0749  01B2               	clrf	___flmul@aexp
  3480  074A  0AB2               	incf	___flmul@aexp,f
  3481  074B  2F51               	goto	l1599
  3482  074C                     l552:
  3483  074C  1C34               	btfss	___flmul@prod,0
  3484  074D  2F4F               	goto	u2261
  3485  074E  2F50               	goto	u2260
  3486  074F                     u2261:
  3487  074F  2F51               	goto	l1599
  3488  0750                     u2260:
  3489  0750  2F49               	goto	l1595
  3490  0751                     l1599:
  3491  0751  0832               	movf	___flmul@aexp,w
  3492  0752  1903               	btfsc	3,2
  3493  0753  2F55               	goto	u2271
  3494  0754  2F56               	goto	u2270
  3495  0755                     u2271:
  3496  0755  2F87               	goto	l1609
  3497  0756                     u2270:
  3498  0756                     l1601:
  3499  0756  3001               	movlw	1
  3500  0757  07B4               	addwf	___flmul@prod,f
  3501  0758  3000               	movlw	0
  3502  0759  1803               	skipnc
  3503  075A  3001               	movlw	1
  3504  075B  07B5               	addwf	___flmul@prod+1,f
  3505  075C  3000               	movlw	0
  3506  075D  1803               	skipnc
  3507  075E  3001               	movlw	1
  3508  075F  07B6               	addwf	___flmul@prod+2,f
  3509  0760  3000               	movlw	0
  3510  0761  1803               	skipnc
  3511  0762  3001               	movlw	1
  3512  0763  07B7               	addwf	___flmul@prod+3,f
  3513  0764                     l1603:
  3514  0764  1C37               	btfss	___flmul@prod+3,0
  3515  0765  2F67               	goto	u2281
  3516  0766  2F68               	goto	u2280
  3517  0767                     u2281:
  3518  0767  2F87               	goto	l1609
  3519  0768                     u2280:
  3520  0768                     l1605:
  3521  0768  0834               	movf	___flmul@prod,w
  3522  0769  00A8               	movwf	??___flmul
  3523  076A  0835               	movf	___flmul@prod+1,w
  3524  076B  00A9               	movwf	??___flmul+1
  3525  076C  0836               	movf	___flmul@prod+2,w
  3526  076D  00AA               	movwf	??___flmul+2
  3527  076E  0837               	movf	___flmul@prod+3,w
  3528  076F  00AB               	movwf	??___flmul+3
  3529  0770  3001               	movlw	1
  3530  0771  00AC               	movwf	??___flmul+4
  3531  0772                     u2295:
  3532  0772  0D2B               	rlf	??___flmul+3,w
  3533  0773  0CAB               	rrf	??___flmul+3,f
  3534  0774  0CAA               	rrf	??___flmul+2,f
  3535  0775  0CA9               	rrf	??___flmul+1,f
  3536  0776  0CA8               	rrf	??___flmul,f
  3537  0777                     u2290:
  3538  0777  0BAC               	decfsz	??___flmul+4,f
  3539  0778  2F72               	goto	u2295
  3540  0779  082B               	movf	??___flmul+3,w
  3541  077A  00B7               	movwf	___flmul@prod+3
  3542  077B  082A               	movf	??___flmul+2,w
  3543  077C  00B6               	movwf	___flmul@prod+2
  3544  077D  0829               	movf	??___flmul+1,w
  3545  077E  00B5               	movwf	___flmul@prod+1
  3546  077F  0828               	movf	??___flmul,w
  3547  0780  00B4               	movwf	___flmul@prod
  3548  0781                     l1607:
  3549  0781  3001               	movlw	1
  3550  0782  07B8               	addwf	___flmul@temp,f
  3551  0783  1803               	skipnc
  3552  0784  0AB9               	incf	___flmul@temp+1,f
  3553  0785  3000               	movlw	0
  3554  0786  07B9               	addwf	___flmul@temp+1,f
  3555  0787                     l1609:
  3556  0787  0839               	movf	___flmul@temp+1,w
  3557  0788  3A80               	xorlw	128
  3558  0789  00FF               	movwf	btemp+1
  3559  078A  3080               	movlw	128
  3560  078B  027F               	subwf	btemp+1,w
  3561  078C  1D03               	skipz
  3562  078D  2F90               	goto	u2305
  3563  078E  30FF               	movlw	255
  3564  078F  0238               	subwf	___flmul@temp,w
  3565  0790                     u2305:
  3566  0790  1C03               	skipc
  3567  0791  2F93               	goto	u2301
  3568  0792  2F94               	goto	u2300
  3569  0793                     u2301:
  3570  0793  2F9F               	goto	l1613
  3571  0794                     u2300:
  3572  0794                     l1611:
  3573  0794  307F               	movlw	127
  3574  0795  1283               	bcf	3,5	;RP0=0, select bank0
  3575  0796  1303               	bcf	3,6	;RP1=0, select bank0
  3576  0797  00B7               	movwf	___flmul@prod+3
  3577  0798  3080               	movlw	128
  3578  0799  00B6               	movwf	___flmul@prod+2
  3579  079A  3000               	movlw	0
  3580  079B  00B5               	movwf	___flmul@prod+1
  3581  079C  3000               	movlw	0
  3582  079D  00B4               	movwf	___flmul@prod
  3583  079E  2FD4               	goto	l558
  3584  079F                     l1613:
  3585  079F  1283               	bcf	3,5	;RP0=0, select bank0
  3586  07A0  1303               	bcf	3,6	;RP1=0, select bank0
  3587  07A1  0839               	movf	___flmul@temp+1,w
  3588  07A2  3A80               	xorlw	128
  3589  07A3  00FF               	movwf	btemp+1
  3590  07A4  3080               	movlw	128
  3591  07A5  027F               	subwf	btemp+1,w
  3592  07A6  1D03               	skipz
  3593  07A7  2FAA               	goto	u2315
  3594  07A8  3001               	movlw	1
  3595  07A9  0238               	subwf	___flmul@temp,w
  3596  07AA                     u2315:
  3597  07AA  1803               	skipnc
  3598  07AB  2FAD               	goto	u2311
  3599  07AC  2FAE               	goto	u2310
  3600  07AD                     u2311:
  3601  07AD  2FBA               	goto	l1619
  3602  07AE                     u2310:
  3603  07AE                     l1615:
  3604  07AE  3000               	movlw	0
  3605  07AF  1283               	bcf	3,5	;RP0=0, select bank0
  3606  07B0  1303               	bcf	3,6	;RP1=0, select bank0
  3607  07B1  00B7               	movwf	___flmul@prod+3
  3608  07B2  3000               	movlw	0
  3609  07B3  00B6               	movwf	___flmul@prod+2
  3610  07B4  3000               	movlw	0
  3611  07B5  00B5               	movwf	___flmul@prod+1
  3612  07B6  3000               	movlw	0
  3613  07B7  00B4               	movwf	___flmul@prod
  3614  07B8                     l1617:
  3615  07B8  01AD               	clrf	___flmul@sign
  3616  07B9  2FD4               	goto	l558
  3617  07BA                     l1619:
  3618  07BA  1283               	bcf	3,5	;RP0=0, select bank0
  3619  07BB  1303               	bcf	3,6	;RP1=0, select bank0
  3620  07BC  0838               	movf	___flmul@temp,w
  3621  07BD  00A8               	movwf	??___flmul
  3622  07BE  0828               	movf	??___flmul,w
  3623  07BF  00B3               	movwf	___flmul@bexp
  3624  07C0  30FF               	movlw	255
  3625  07C1  05B4               	andwf	___flmul@prod,f
  3626  07C2  30FF               	movlw	255
  3627  07C3  05B5               	andwf	___flmul@prod+1,f
  3628  07C4  307F               	movlw	127
  3629  07C5  05B6               	andwf	___flmul@prod+2,f
  3630  07C6  3000               	movlw	0
  3631  07C7  05B7               	andwf	___flmul@prod+3,f
  3632  07C8                     l1621:
  3633  07C8  1C33               	btfss	___flmul@bexp,0
  3634  07C9  2FCB               	goto	u2321
  3635  07CA  2FCC               	goto	u2320
  3636  07CB                     u2321:
  3637  07CB  2FCD               	goto	l1625
  3638  07CC                     u2320:
  3639  07CC                     l1623:
  3640  07CC  17B6               	bsf	___flmul@prod+2,7
  3641  07CD                     l1625:
  3642  07CD  0833               	movf	___flmul@bexp,w
  3643  07CE  00A8               	movwf	??___flmul
  3644  07CF  1003               	clrc
  3645  07D0  0C28               	rrf	??___flmul,w
  3646  07D1  00A9               	movwf	??___flmul+1
  3647  07D2  0829               	movf	??___flmul+1,w
  3648  07D3  00B7               	movwf	___flmul@prod+3
  3649  07D4                     l558:
  3650  07D4  082D               	movf	___flmul@sign,w
  3651  07D5  00A8               	movwf	??___flmul
  3652  07D6  0828               	movf	??___flmul,w
  3653  07D7  04B7               	iorwf	___flmul@prod+3,f
  3654  07D8                     l1627:
  3655  07D8  0837               	movf	___flmul@prod+3,w
  3656  07D9  00A3               	movwf	?___flmul+3
  3657  07DA  0836               	movf	___flmul@prod+2,w
  3658  07DB  00A2               	movwf	?___flmul+2
  3659  07DC  0835               	movf	___flmul@prod+1,w
  3660  07DD  00A1               	movwf	?___flmul+1
  3661  07DE  0834               	movf	___flmul@prod,w
  3662  07DF  00A0               	movwf	?___flmul
  3663  07E0                     l546:
  3664  07E0  0008               	return
  3665  07E1                     __end_of___flmul:
  3666                           
  3667                           	psect	text9
  3668  0016                     __ptext9:	
  3669 ;; *************** function __Umul8_16 *****************
  3670 ;; Defined at:
  3671 ;;		line 4 in file "C:\Program Files\Microchip\xc8\v2.31\pic\sources\c90\common\Umul8_16.c"
  3672 ;; Parameters:    Size  Location     Type
  3673 ;;  multiplier      1    wreg     unsigned char 
  3674 ;;  multiplicand    1    0[COMMON] unsigned char 
  3675 ;; Auto vars:     Size  Location     Type
  3676 ;;  multiplier      1    8[COMMON] unsigned char 
  3677 ;;  word_mpld       2    6[COMMON] unsigned int 
  3678 ;;  product         2    4[COMMON] unsigned int 
  3679 ;; Return value:  Size  Location     Type
  3680 ;;                  2    0[COMMON] unsigned int 
  3681 ;; Registers used:
  3682 ;;		wreg, status,2, status,0
  3683 ;; Tracked objects:
  3684 ;;		On entry : 0/0
  3685 ;;		On exit  : 0/0
  3686 ;;		Unchanged: 0/0
  3687 ;; Data sizes:     COMMON   BANK0   BANK1   BANK3   BANK2
  3688 ;;      Params:         2       0       0       0       0
  3689 ;;      Locals:         5       0       0       0       0
  3690 ;;      Temps:          2       0       0       0       0
  3691 ;;      Totals:         9       0       0       0       0
  3692 ;;Total ram usage:        9 bytes
  3693 ;; Hardware stack levels used:    1
  3694 ;; This function calls:
  3695 ;;		Nothing
  3696 ;; This function is called by:
  3697 ;;		___flmul
  3698 ;; This function uses a non-reentrant model
  3699 ;;
  3700                           
  3701                           
  3702                           ;psect for function __Umul8_16
  3703  0016                     __Umul8_16:
  3704                           
  3705                           ;incstack = 0
  3706                           ; Regs used in __Umul8_16: [wreg+status,2+status,0]
  3707                           ;__Umul8_16@multiplier stored from wreg
  3708  0016  00F8               	movwf	__Umul8_16@multiplier
  3709  0017                     l1387:
  3710  0017  01F4               	clrf	__Umul8_16@product
  3711  0018  01F5               	clrf	__Umul8_16@product+1
  3712  0019                     l1389:
  3713  0019  0870               	movf	__Umul8_16@multiplicand,w
  3714  001A  00F2               	movwf	??__Umul8_16
  3715  001B  01F3               	clrf	??__Umul8_16+1
  3716  001C  0872               	movf	??__Umul8_16,w
  3717  001D  00F6               	movwf	__Umul8_16@word_mpld
  3718  001E  0873               	movf	??__Umul8_16+1,w
  3719  001F  00F7               	movwf	__Umul8_16@word_mpld+1
  3720  0020                     l1391:
  3721  0020  1C78               	btfss	__Umul8_16@multiplier,0
  3722  0021  2823               	goto	u1721
  3723  0022  2824               	goto	u1720
  3724  0023                     u1721:
  3725  0023  282A               	goto	l565
  3726  0024                     u1720:
  3727  0024                     l1393:
  3728  0024  0876               	movf	__Umul8_16@word_mpld,w
  3729  0025  07F4               	addwf	__Umul8_16@product,f
  3730  0026  1803               	skipnc
  3731  0027  0AF5               	incf	__Umul8_16@product+1,f
  3732  0028  0877               	movf	__Umul8_16@word_mpld+1,w
  3733  0029  07F5               	addwf	__Umul8_16@product+1,f
  3734  002A                     l565:
  3735  002A  3001               	movlw	1
  3736  002B                     u1735:
  3737  002B  1003               	clrc
  3738  002C  0DF6               	rlf	__Umul8_16@word_mpld,f
  3739  002D  0DF7               	rlf	__Umul8_16@word_mpld+1,f
  3740  002E  3EFF               	addlw	-1
  3741  002F  1D03               	skipz
  3742  0030  282B               	goto	u1735
  3743  0031  1003               	clrc
  3744  0032  0CF8               	rrf	__Umul8_16@multiplier,f
  3745  0033                     l1395:
  3746  0033  0878               	movf	__Umul8_16@multiplier,w
  3747  0034  1D03               	btfss	3,2
  3748  0035  2837               	goto	u1741
  3749  0036  2838               	goto	u1740
  3750  0037                     u1741:
  3751  0037  2820               	goto	l1391
  3752  0038                     u1740:
  3753  0038                     l1397:
  3754  0038  0875               	movf	__Umul8_16@product+1,w
  3755  0039  00F1               	movwf	?__Umul8_16+1
  3756  003A  0874               	movf	__Umul8_16@product,w
  3757  003B  00F0               	movwf	?__Umul8_16
  3758  003C                     l567:
  3759  003C  0008               	return
  3760  003D                     __end_of__Umul8_16:
  3761                           
  3762                           	psect	text10
  3763  0F2B                     __ptext10:	
  3764 ;; *************** function ___awmod *****************
  3765 ;; Defined at:
  3766 ;;		line 5 in file "C:\Program Files\Microchip\xc8\v2.31\pic\sources\c90\common\awmod.c"
  3767 ;; Parameters:    Size  Location     Type
  3768 ;;  divisor         2    0[COMMON] int 
  3769 ;;  dividend        2    2[COMMON] int 
  3770 ;; Auto vars:     Size  Location     Type
  3771 ;;  sign            1    6[COMMON] unsigned char 
  3772 ;;  counter         1    5[COMMON] unsigned char 
  3773 ;; Return value:  Size  Location     Type
  3774 ;;                  2    0[COMMON] int 
  3775 ;; Registers used:
  3776 ;;		wreg, status,2, status,0
  3777 ;; Tracked objects:
  3778 ;;		On entry : 0/0
  3779 ;;		On exit  : 0/0
  3780 ;;		Unchanged: 0/0
  3781 ;; Data sizes:     COMMON   BANK0   BANK1   BANK3   BANK2
  3782 ;;      Params:         4       0       0       0       0
  3783 ;;      Locals:         2       0       0       0       0
  3784 ;;      Temps:          1       0       0       0       0
  3785 ;;      Totals:         7       0       0       0       0
  3786 ;;Total ram usage:        7 bytes
  3787 ;; Hardware stack levels used:    1
  3788 ;; This function calls:
  3789 ;;		Nothing
  3790 ;; This function is called by:
  3791 ;;		_SETSPEED
  3792 ;; This function uses a non-reentrant model
  3793 ;;
  3794                           
  3795                           
  3796                           ;psect for function ___awmod
  3797  0F2B                     ___awmod:
  3798  0F2B                     l1411:	
  3799                           ;incstack = 0
  3800                           ; Regs used in ___awmod: [wreg+status,2+status,0]
  3801                           
  3802  0F2B  01F6               	clrf	___awmod@sign
  3803  0F2C                     l1413:
  3804  0F2C  1FF3               	btfss	___awmod@dividend+1,7
  3805  0F2D  2F2F               	goto	u1771
  3806  0F2E  2F30               	goto	u1770
  3807  0F2F                     u1771:
  3808  0F2F  2F37               	goto	l1419
  3809  0F30                     u1770:
  3810  0F30                     l1415:
  3811  0F30  09F2               	comf	___awmod@dividend,f
  3812  0F31  09F3               	comf	___awmod@dividend+1,f
  3813  0F32  0AF2               	incf	___awmod@dividend,f
  3814  0F33  1903               	skipnz
  3815  0F34  0AF3               	incf	___awmod@dividend+1,f
  3816  0F35                     l1417:
  3817  0F35  01F6               	clrf	___awmod@sign
  3818  0F36  0AF6               	incf	___awmod@sign,f
  3819  0F37                     l1419:
  3820  0F37  1FF1               	btfss	___awmod@divisor+1,7
  3821  0F38  2F3A               	goto	u1781
  3822  0F39  2F3B               	goto	u1780
  3823  0F3A                     u1781:
  3824  0F3A  2F40               	goto	l1423
  3825  0F3B                     u1780:
  3826  0F3B                     l1421:
  3827  0F3B  09F0               	comf	___awmod@divisor,f
  3828  0F3C  09F1               	comf	___awmod@divisor+1,f
  3829  0F3D  0AF0               	incf	___awmod@divisor,f
  3830  0F3E  1903               	skipnz
  3831  0F3F  0AF1               	incf	___awmod@divisor+1,f
  3832  0F40                     l1423:
  3833  0F40  0870               	movf	___awmod@divisor,w
  3834  0F41  0471               	iorwf	___awmod@divisor+1,w
  3835  0F42  1903               	btfsc	3,2
  3836  0F43  2F45               	goto	u1791
  3837  0F44  2F46               	goto	u1790
  3838  0F45                     u1791:
  3839  0F45  2F75               	goto	l1441
  3840  0F46                     u1790:
  3841  0F46                     l1425:
  3842  0F46  01F5               	clrf	___awmod@counter
  3843  0F47  0AF5               	incf	___awmod@counter,f
  3844  0F48  2F54               	goto	l1431
  3845  0F49                     l1427:
  3846  0F49  3001               	movlw	1
  3847  0F4A                     u1805:
  3848  0F4A  1003               	clrc
  3849  0F4B  0DF0               	rlf	___awmod@divisor,f
  3850  0F4C  0DF1               	rlf	___awmod@divisor+1,f
  3851  0F4D  3EFF               	addlw	-1
  3852  0F4E  1D03               	skipz
  3853  0F4F  2F4A               	goto	u1805
  3854  0F50                     l1429:
  3855  0F50  3001               	movlw	1
  3856  0F51  00F4               	movwf	??___awmod
  3857  0F52  0874               	movf	??___awmod,w
  3858  0F53  07F5               	addwf	___awmod@counter,f
  3859  0F54                     l1431:
  3860  0F54  1FF1               	btfss	___awmod@divisor+1,7
  3861  0F55  2F57               	goto	u1811
  3862  0F56  2F58               	goto	u1810
  3863  0F57                     u1811:
  3864  0F57  2F49               	goto	l1427
  3865  0F58                     u1810:
  3866  0F58                     l1433:
  3867  0F58  0871               	movf	___awmod@divisor+1,w
  3868  0F59  0273               	subwf	___awmod@dividend+1,w
  3869  0F5A  1D03               	skipz
  3870  0F5B  2F5E               	goto	u1825
  3871  0F5C  0870               	movf	___awmod@divisor,w
  3872  0F5D  0272               	subwf	___awmod@dividend,w
  3873  0F5E                     u1825:
  3874  0F5E  1C03               	skipc
  3875  0F5F  2F61               	goto	u1821
  3876  0F60  2F62               	goto	u1820
  3877  0F61                     u1821:
  3878  0F61  2F68               	goto	l1437
  3879  0F62                     u1820:
  3880  0F62                     l1435:
  3881  0F62  0870               	movf	___awmod@divisor,w
  3882  0F63  02F2               	subwf	___awmod@dividend,f
  3883  0F64  0871               	movf	___awmod@divisor+1,w
  3884  0F65  1C03               	skipc
  3885  0F66  03F3               	decf	___awmod@dividend+1,f
  3886  0F67  02F3               	subwf	___awmod@dividend+1,f
  3887  0F68                     l1437:
  3888  0F68  3001               	movlw	1
  3889  0F69                     u1835:
  3890  0F69  1003               	clrc
  3891  0F6A  0CF1               	rrf	___awmod@divisor+1,f
  3892  0F6B  0CF0               	rrf	___awmod@divisor,f
  3893  0F6C  3EFF               	addlw	-1
  3894  0F6D  1D03               	skipz
  3895  0F6E  2F69               	goto	u1835
  3896  0F6F                     l1439:
  3897  0F6F  3001               	movlw	1
  3898  0F70  02F5               	subwf	___awmod@counter,f
  3899  0F71  1D03               	btfss	3,2
  3900  0F72  2F74               	goto	u1841
  3901  0F73  2F75               	goto	u1840
  3902  0F74                     u1841:
  3903  0F74  2F58               	goto	l1433
  3904  0F75                     u1840:
  3905  0F75                     l1441:
  3906  0F75  0876               	movf	___awmod@sign,w
  3907  0F76  1903               	btfsc	3,2
  3908  0F77  2F79               	goto	u1851
  3909  0F78  2F7A               	goto	u1850
  3910  0F79                     u1851:
  3911  0F79  2F7F               	goto	l1445
  3912  0F7A                     u1850:
  3913  0F7A                     l1443:
  3914  0F7A  09F2               	comf	___awmod@dividend,f
  3915  0F7B  09F3               	comf	___awmod@dividend+1,f
  3916  0F7C  0AF2               	incf	___awmod@dividend,f
  3917  0F7D  1903               	skipnz
  3918  0F7E  0AF3               	incf	___awmod@dividend+1,f
  3919  0F7F                     l1445:
  3920  0F7F  0873               	movf	___awmod@dividend+1,w
  3921  0F80  00F1               	movwf	?___awmod+1
  3922  0F81  0872               	movf	___awmod@dividend,w
  3923  0F82  00F0               	movwf	?___awmod
  3924  0F83                     l323:
  3925  0F83  0008               	return
  3926  0F84                     __end_of___awmod:
  3927                           
  3928                           	psect	text11
  3929  0EA9                     __ptext11:	
  3930 ;; *************** function _INITSTEPPER *****************
  3931 ;; Defined at:
  3932 ;;		line 35 in file "MYSTEPPER.c"
  3933 ;; Parameters:    Size  Location     Type
  3934 ;;		None
  3935 ;; Auto vars:     Size  Location     Type
  3936 ;;		None
  3937 ;; Return value:  Size  Location     Type
  3938 ;;                  1    wreg      void 
  3939 ;; Registers used:
  3940 ;;		wreg, status,2
  3941 ;; Tracked objects:
  3942 ;;		On entry : 0/0
  3943 ;;		On exit  : 0/0
  3944 ;;		Unchanged: 0/0
  3945 ;; Data sizes:     COMMON   BANK0   BANK1   BANK3   BANK2
  3946 ;;      Params:         0       0       0       0       0
  3947 ;;      Locals:         0       0       0       0       0
  3948 ;;      Temps:          0       0       0       0       0
  3949 ;;      Totals:         0       0       0       0       0
  3950 ;;Total ram usage:        0 bytes
  3951 ;; Hardware stack levels used:    1
  3952 ;; This function calls:
  3953 ;;		Nothing
  3954 ;; This function is called by:
  3955 ;;		_main
  3956 ;; This function uses a non-reentrant model
  3957 ;;
  3958                           
  3959                           
  3960                           ;psect for function _INITSTEPPER
  3961  0EA9                     _INITSTEPPER:
  3962  0EA9                     l1675:	
  3963                           ;incstack = 0
  3964                           ; Regs used in _INITSTEPPER: [wreg+status,2]
  3965                           
  3966                           
  3967                           ;MYSTEPPER.c: 37:    TRISD = 0x00;
  3968  0EA9  1683               	bsf	3,5	;RP0=1, select bank1
  3969  0EAA  1303               	bcf	3,6	;RP1=0, select bank1
  3970  0EAB  0188               	clrf	8	;volatile
  3971                           
  3972                           ;MYSTEPPER.c: 38:    PORTD = 0x00;
  3973  0EAC  1283               	bcf	3,5	;RP0=0, select bank0
  3974  0EAD  1303               	bcf	3,6	;RP1=0, select bank0
  3975  0EAE  0188               	clrf	8	;volatile
  3976  0EAF                     l1677:
  3977                           
  3978                           ;MYSTEPPER.c: 39:    flag = 1;
  3979  0EAF  3001               	movlw	1
  3980  0EB0  00E5               	movwf	_flag
  3981  0EB1  3000               	movlw	0
  3982  0EB2  00E6               	movwf	_flag+1
  3983  0EB3                     l17:
  3984  0EB3  0008               	return
  3985  0EB4                     __end_of_INITSTEPPER:
  3986  007E                     btemp	set	126	;btemp
  3987  007E                     wtemp0	set	126
  3988                           
  3989                           	psect	config
  3990                           
  3991                           ;Config register CONFIG @ 0x2007
  3992                           ;	Oscillator Selection bits
  3993                           ;	FOSC = HS, HS oscillator
  3994                           ;	Watchdog Timer Enable bit
  3995                           ;	WDTE = OFF, WDT disabled
  3996                           ;	Power-up Timer Enable bit
  3997                           ;	PWRTE = OFF, PWRT disabled
  3998                           ;	Brown-out Reset Enable bit
  3999                           ;	BOREN = ON, BOR enabled
  4000                           ;	Low-Voltage (Single-Supply) In-Circuit Serial Programming Enable bit
  4001                           ;	LVP = ON, RB3/PGM pin has PGM function; low-voltage programming enabled
  4002                           ;	Data EEPROM Memory Code Protection bit
  4003                           ;	CPD = OFF, Data EEPROM code protection off
  4004                           ;	Flash Program Memory Write Enable bits
  4005                           ;	WRT = OFF, Write protection off; all program memory may be written to by EECON control
  4006                           ;	In-Circuit Debugger Mode bit
  4007                           ;	DEBUG = 0x1, unprogrammed default
  4008                           ;	Flash Program Memory Code Protection bit
  4009                           ;	CP = OFF, Code protection off
  4010  2007                     	org	8199
  4011  2007  3FFA               	dw	16378

Data Sizes:
    Strings     0
    Constant    0
    Data        24
    BSS         0
    Persistent  2
    Stack       0

Auto Spaces:
    Space          Size  Autos    Used
    COMMON           14     14      14
    BANK0            80     61      71
    BANK1            80      0      16
    BANK3            96      0       0
    BANK2            96      0       0

Pointer List with Targets:

    None.

Critical Paths under _main in COMMON

    _SETSPEED->___xxtofl
    ___fltol->___xxtofl
    ___flsub->___xxtofl
    ___flmul->___xxtofl

Critical Paths under _main in BANK0

    _main->_SETSPEED
    _SETSPEED->___fltol
    ___fltol->___flsub
    ___flsub->___flmul

Critical Paths under _main in BANK1

    None.

Critical Paths under _main in BANK3

    None.

Critical Paths under _main in BANK2

    None.

Call Graph Tables:

 ---------------------------------------------------------------------------------
 (Depth) Function   	        Calls       Base Space   Used Autos Params    Refs
 ---------------------------------------------------------------------------------
 (0) _main                                                 0     0      0    6185
                        _INITSTEPPER
                           _SETSPEED
                           _init_adc
 ---------------------------------------------------------------------------------
 (1) _init_adc                                             0     0      0       0
 ---------------------------------------------------------------------------------
 (1) _SETSPEED                                            16    16      0    6185
                                             45 BANK0     16    16      0
                            ___awmod
                            ___flmul
                            ___flsub
                            ___fltol
                           ___xxtofl
                            _readADC
 ---------------------------------------------------------------------------------
 (2) _readADC                                              4     2      2      98
                                              0 COMMON     4     2      2
 ---------------------------------------------------------------------------------
 (2) ___xxtofl                                            14    10      4     398
                                              0 COMMON    14    10      4
 ---------------------------------------------------------------------------------
 (2) ___fltol                                             11     7      4     305
                                             34 BANK0     11     7      4
                            ___flmul (ARG)
                            ___flsub (ARG)
                           ___xxtofl (ARG)
 ---------------------------------------------------------------------------------
 (2) ___flsub                                              8     0      8    2333
                                             26 BANK0      8     0      8
                            ___fladd
                            ___flmul (ARG)
                           ___xxtofl (ARG)
 ---------------------------------------------------------------------------------
 (3) ___fladd                                             20    12      8    2136
                                              0 COMMON    12     4      8
                                              0 BANK0      8     8      0
 ---------------------------------------------------------------------------------
 (2) ___flmul                                             26    18      8    2417
                                              0 BANK0     26    18      8
                          __Umul8_16
                           ___xxtofl (ARG)
 ---------------------------------------------------------------------------------
 (3) __Umul8_16                                            9     7      2     799
                                              0 COMMON     9     7      2
 ---------------------------------------------------------------------------------
 (2) ___awmod                                              7     3      4     448
                                              0 COMMON     7     3      4
 ---------------------------------------------------------------------------------
 (1) _INITSTEPPER                                          0     0      0       0
 ---------------------------------------------------------------------------------
 Estimated maximum stack depth 3
 ---------------------------------------------------------------------------------

 Call Graph Graphs:

 _main (ROOT)
   _INITSTEPPER
   _SETSPEED
     ___awmod
     ___flmul
       __Umul8_16
       ___xxtofl (ARG)
     ___flsub
       ___fladd
       ___flmul (ARG)
         __Umul8_16
         ___xxtofl (ARG)
       ___xxtofl (ARG)
     ___fltol
       ___flmul (ARG)
         __Umul8_16
         ___xxtofl (ARG)
       ___flsub (ARG)
         ___fladd
         ___flmul (ARG)
           __Umul8_16
           ___xxtofl (ARG)
         ___xxtofl (ARG)
       ___xxtofl (ARG)
     ___xxtofl
     _readADC
   _init_adc

 Address spaces:
Name               Size   Autos  Total    Cost      Usage
BANK3               60      0       0       9        0.0%
BITBANK3            60      0       0       8        0.0%
SFR3                 0      0       0       4        0.0%
BITSFR3              0      0       0       4        0.0%
BANK2               60      0       0      11        0.0%
BITBANK2            60      0       0      10        0.0%
SFR2                 0      0       0       5        0.0%
BITSFR2              0      0       0       5        0.0%
BANK1               50      0      10       7       20.0%
BITBANK1            50      0       0       6        0.0%
SFR1                 0      0       0       2        0.0%
BITSFR1              0      0       0       2        0.0%
BANK0               50     3D      47       5       88.8%
BITBANK0            50      0       0       4        0.0%
SFR0                 0      0       0       1        0.0%
BITSFR0              0      0       0       1        0.0%
COMMON               E      E       E       1      100.0%
BITCOMMON            E      0       0       0        0.0%
CODE                 0      0       0       0        0.0%
DATA                 0      0      65      12        0.0%
ABS                  0      0      65       3        0.0%
NULL                 0      0       0       0        0.0%
STACK                0      0       0       2        0.0%
EEDATA             100      0       0       0        0.0%


Microchip Technology PIC Macro Assembler V2.31 build 20201012212115 
Symbol Table                                                                                   Thu Dec 17 15:40:42 2020

                      pc 0002                       l24 01C6                       l17 0EB3  
                     l25 01B7                       l28 01E7                       l46 0EE2  
                     l71 0F06                       l65 0EC2                       l68 0EFC  
                     fsr 0004      __Umul8_16@word_mpld 0076                      l323 0F83  
                    l350 0FEA                      l343 0FFF                      l353 0FFF  
                    l450 024B                      l603 00C0                      l604 00CC  
                    l454 02F4                      l471 03C5                      l463 047F  
                    l552 074C                      l456 02C9                      l481 040D  
                    l546 07E0                      l475 03EB                      l492 0471  
                    l484 044D                      l565 002A                      l493 047F  
                    l558 07D4                      l590 005F                      l567 003C  
                    l496 0F2A                      l592 00F6                      l596 00A4  
                    fsr0 0004                      indf 0000             ___awmod@sign 0076  
           ___flmul@aexp 0032             ___flmul@bexp 0033             ___flmul@sign 002D  
           ___flmul@temp 0038             ___flmul@prod 0034             ?_INITSTEPPER 0070  
           ___fltol@exp1 004C                     l1201 01FA                     l1203 01FF  
                   l1211 020F                     l1301 0321                     l1221 0229  
                   l1213 0217                     l1205 0204                     l1311 0337  
                   l1303 0325                     l1231 0240                     l1223 022D  
                   l1215 021C                     l1207 020C                     l1321 03A3  
                   l1313 0342                     l1305 0330                     l1241 0259  
                   l1233 0241                     l1225 022E                     l1217 0222  
                   l1209 020D                     l1401 0EE5                     l1411 0F2B  
                   l1323 03A8                     l1307 0332                     l1315 0347  
                   l1251 026D                     l1243 025D                     l1227 0233  
                   l1235 0243                     l1219 0223                     l1403 0EF4  
                   l1421 0F3B                     l1413 0F2C                     l1501 0497  
                   l1341 03F2                     l1333 03DB                     l1317 035D  
                   l1325 03B7                     l1309 0336                     l1261 0281  
                   l1253 0271                     l1245 0261                     l1237 0251  
                   l1229 0238                     l1405 0EF9                     l1181 0EBB  
                   l1431 0F54                     l1423 0F40                     l1415 0F30  
                   l1511 04B3                     l1503 049C                     l1351 0400  
                   l1343 03F4                     l1335 03E6                     l1327 03CD  
                   l1319 039D                     l1263 0285                     l1255 0275  
                   l1247 0265                     l1239 0255                     l1271 0295  
                   l1407 0F00                     l1183 0EBE                     l1433 0F58  
                   l1425 0F46                     l1441 0F75                     l1417 0F35  
                   l1601 0756                     l1521 04C8                     l1513 04B9  
                   l1505 04A4                     l1361 0417                     l1353 0404  
                   l1345 03F9                     l1337 03EA                     l1329 03D2  
                   l1281 02DA                     l1273 0296                     l1265 0289  
                   l1257 0279                     l1249 0269                     l1193 01E8  
                   l1185 0EBF                     l1177 0EB4                     l1443 0F7A  
                   l1435 0F62                     l1427 0F49                     l1419 0F37  
                   l1611 0794                     l1603 0764                     l1531 04E4  
                   l1523 04D0                     l1515 04BD                     l1507 04A6  
                   l1371 0457                     l1363 0425                     l1355 040A  
                   l1339 03EF                     l1347 03FB                     l1291 02F8  
                   l1283 02DE                     l1275 02AD                     l1267 028D  
                   l1259 027D                     l1195 01EF                     l1451 0F91  
                   l1179 0EB8                     l1445 0F7F                     l1437 0F68  
                   l1429 0F50                     l1621 07C8                     l1613 079F  
                   l1605 0768                     l1541 0527                     l1525 04D2  
                   l1517 04BE                     l1509 04AE                     l1381 046B  
                   l1373 045F                     l1365 0429                     l1349 03FF  
                   l1293 02FD                     l1285 02DF                     l1277 02CD  
                   l1269 0291                     l1197 01F5                     l1461 0FB8  
                   l1701 01B2                     l1439 0F6F                     l1391 0020  
                   l1623 07CC                     l1615 07AE                     l1607 0781  
                   l1551 05B0                     l1543 0543                     l1535 04ED  
                   l1527 04DA                     l1519 04C3                     l1383 047A  
                   l1375 0464                     l1367 0449                     l1359 0412  
                   l1287 02EA                     l1279 02D8                     l1199 01F9  
                   l1471 0FC6                     l1463 0FBA                     l1455 0F9A  
                   l1631 003E                     l1703 01BE                     l1711 0EDD  
                   l1393 0024                     l1625 07CD                     l1617 07B8  
                   l1609 0787                     l1561 0623                     l1553 05C0  
                   l1545 056F                     l1537 04FD                     l1529 04DF  
                   l1385 047E                     l1377 0465                     l1369 0452  
                   l1297 0306                     l1289 02EE                     l1481 0FEF  
                   l1465 0FBE                     l1473 0FD8                     l1457 0FAF  
                   l1449 0F84                     l1633 0043                     l1705 01E1  
                   l1395 0033                     l1387 0017                     l1627 07D8  
                   l1619 07BA                     l1571 06D0                     l1563 0640  
                   l1555 05DD                     l1547 058B                     l1539 050A  
                   l1491 0480                     l1379 0469                     l1299 031D  
                   l1483 0FF4                     l1459 0FB0                     l1651 008D  
                   l1643 0070                     l1635 0047                     l1397 0038  
                   l1389 0019                     l1581 071C                     l1573 06F8  
                   l1565 066D                     l1557 05ED                     l1549 05A7  
                   l1493 0487                     l1485 0F07                     l1661 00C4  
                   l1653 009B                     l1645 0075                     l1637 0057  
                   l1709 0ED3                     l1591 0731                     l1583 071D  
                   l1575 0701                     l1567 067D                     l1559 060A  
                   l1495 048D                     l1487 0F0B                     l1479 0FDF  
                   l1671 00EE                     l1663 00CE                     l1655 00AB  
                   l1647 0082                     l1639 0067                     l1593 0735  
                   l1585 0726                     l1577 070F                     l1569 06AA  
                   l1497 0491                     l1665 00E4                     l1657 00B6  
                   l1649 0089                     l1681 00FB                     l1675 0EA9  
                   l1595 0749                     l1579 0718                     l1587 072C  
                   l1499 0492                     l1667 00E9                     l1659 00BA  
                   l1691 0133                     l1683 0100                     l1677 0EAF  
                   l1589 0730                     l1669 00ED                     l1693 0186  
                   l1685 0108                     l1599 0751                     l1695 018E  
                   l1687 010E                     l1679 00F7                     l1697 0196  
                   l1689 0120                     l1699 01A8                     u2000 04C3  
                   u2001 04C2                     u2010 04C8                     u2011 04C7  
                   u2020 04DF                     u1300 022D                     u2101 05FC  
                   u2021 04DE                     u1301 022C                     u2102 0603  
                   u2030 04E4                     u1310 0233                     u2103 060A  
                   u2031 04E3                     u1311 0232                     u1320 0238  
                   u2121 0632                     u2041 0535                     u1321 0237  
                   u2210 071C                     u2122 0639                     u2042 053C  
                   u1410 02F4                     u1330 0251                     u2211 071B  
                   u2131 065F                     u2123 0640                     u2115 060C  
                   u2051 0551                     u2043 0543                     u1411 02F3  
                   u1331 0250                     u2300 0794                     u2132 0666  
                   u2052 0558                     u1420 02F8                     u1340 0255  
                   u1260 01F9                     u2301 0793                     u2205 0711  
                   u2141 068C                     u2133 066D                     u2061 057D  
                   u2053 055F                     u1501 0376                     u1421 02F7  
                   u1405 02E3                     u1341 0254                     u1261 01F8  
                   u2310 07AE                     u2230 0730                     u2150 06B6  
                   u2142 0693                     u2062 0584                     u1510 038A  
                   u1502 0377                     u1430 02FD                     u1350 02AD  
                   u1270 01FF                     u2311 07AD                     u2231 072F  
                   u2143 069A                     u2071 0599                     u2063 058B  
                   u1511 038B                     u1503 037C                     u1431 02FC  
                   u1351 02AC                     u1271 01FE                     u2320 07CC  
                   u2240 0735                     u2072 05A0                     u1600 0404  
                   u1520 03A8                     u1512 0390                     u1504 037D  
                   u1360 02B6                     u1280 0204                     u2321 07CB  
                   u2305 0790                     u2241 0734                     u2225 071F  
                   u2161 06C2                     u2073 05A7                     u1601 0403  
                   u1521 03A7                     u1513 0391                     u1505 0382  
                   u1441 030F                     u1361 02B4                     u1281 0203  
                   u2250 0749                     u2170 06DE                     u2162 06C9  
                   u1610 040A                     u1530 03CD                     u1506 0383  
                   u1450 0321                     u1442 0316                     u1370 02B7  
                   u1290 0222                     u2410 00BA                     u2330 0043  
                   u2315 07AA                     u2251 0748                     u2163 06D0  
                   u2155 06B1                     u2091 05CF                     u1611 0409  
                   u1531 03CC                     u1451 0320                     u1443 031D  
                   u1355 02A9                     u1291 0221                     u2411 00B9  
                   u2331 0042                     u2260 0750                     u2092 05D6  
                   u1700 0469                     u1620 0411                     u1540 03D2  
                   u1460 0325                     u1380 02CD                     u2420 00C0  
                   u2340 0047                     u2500 01E7                     u2261 074F  
                   u2181 06EA                     u2093 05DD                     u2085 05A9  
                   u1701 0468                     u1621 0410                     u1541 03D1  
                   u1461 0324                     u1381 02CC                     u2421 00BF  
                   u2405 00AF                     u2341 0046                     u2501 01E6  
                   u2270 0756                     u2182 06F1                     u1710 047E  
                   u1630 0417                     u1470 0336                     u1390 02DE  
                   u2430 00C4                     u2350 0067                     u2271 0755  
                   u2183 06F8                     u2175 06D9                     u1711 047D  
                   u1631 0416                     u1471 0335                     u1391 02DD  
                   u2431 00C3                     u2351 0066                     u1720 0024  
                   u2280 0768                     u1640 0429                     u1560 03EA  
                   u2440 00D9                     u1721 0023                     u2281 0767  
                   u1641 0428                     u1561 03E9                     u1810 0F58  
                   u2290 0777                     u1650 043A                     u1570 03EF  
                   u1490 035D                     u2450 00E9                     u2370 0088  
                   u1811 0F57                     u2195 06FA                     u1571 03EE  
                   u1555 03DF                     u1491 035C                     u2451 00E8  
                   u2371 0087                     u1820 0F62                     u1740 0038  
                   u1660 0449                     u1580 03F9                     u2460 00ED  
                   u1821 0F61                     u1805 0F4A                     u1741 0037  
                   u1661 0448                     u1581 03F8                     u1493 0359  
                   u1485 033B                     u2461 00EC                     u2445 00D4  
                   u2365 007A                     u2517 0EF6                     u1670 0452  
                   u1590 03FF                     u1910 0FD7                     u2390 00AA  
                   u2470 018E                     u1735 002B                     u2295 0772  
                   u1671 0451                     u1655 0435                     u1591 03FE  
                   u1911 0FD6                     u2391 00A9                     u2471 018D  
                   u1840 0F75                     u1680 0457                     u1920 0FDE  
                   u1760 0F00                     u2480 01A8                     u1841 0F74  
                   u1825 0F5E                     u1681 0456                     u1921 0FDD  
                   u1905 0FC7                     u2385 009C                     u1761 0EFF  
                   u2481 01A7                     u1850 0F7A                     u1770 0F30  
                   u1690 0464                     u2490 01E1                     u1851 0F79  
                   u1835 0F69                     u1771 0F2F                     u1691 0463  
                   u1755 0EE8                     u2491 01E0                     u2483 01A4  
                   u1780 0F3B                     u1940 0FEF                     u1860 0F91  
                   u1781 0F3A                     u1941 0FEE                     u1861 0F90  
                   u1790 0F46                     u1950 0FF4                     u1870 0FA8  
                   u1791 0F45                     u1951 0FF3                     u1935 0FE1  
                   u2495 01DD                     u1960 0491                     u1880 0FBE  
                   u1961 0490                     u1881 0FBD                     u1970 0497  
                   u1890 0FC5                     u1971 0496                     u1891 0FC4  
                   u1875 0FA3                     u1980 049C                     u1981 049B  
                   u1990 04BD                     u1991 04BC                     _flag 0065  
                   _main 0ED3                     btemp 007E                     start 0000  
          ___fltol@sign1 004B          __end_of___fladd 0480                    ?_main 0070  
        __end_of___awmod 0F84          __end_of___flmul 07E1          __end_of___flsub 0F2B  
        __end_of___fltol 1000                    _PORTD 0008                    _TRISA 0085  
                  _TRISD 0088         __end_of_SETSPEED 01E8          __end_of_readADC 0F07  
                  pclath 000A                    status 0003                    wtemp0 007E  
        __initialization 07E1             __end_of_main 0EE5                   ??_main 007E  
                 _ADCON0 001F                   _ADCON1 009F                   _ADRESH 001E  
                 _ADRESL 009E         __end_of___xxtofl 00F7                ??___fladd 0020  
              ??___awmod 0074                ??___flmul 0028                ??___flsub 007E  
              ??___fltol 0046         __end_of_init_adc 0EC3          ___awmod@divisor 0070  
        ___awmod@counter 0075                ??_readADC 0072       __size_of__Umul8_16 0027  
   __size_of_INITSTEPPER 000B             ___xxtofl@arg 007A             ___xxtofl@exp 0079  
           ___xxtofl@val 0070  __end_of__initialization 07FC               ___fltol@f1 0042  
         __pcstackCOMMON 0070                ?_SETSPEED 0070             __pidataBANK0 0EA1  
           __pidataBANK1 0EC3        __end_of__Umul8_16 003D               __pmaintext 0ED3  
             ??_SETSPEED 004D                SETSPEED@i 0055                SETSPEED@t 0059  
              SETSPEED@y 0057                ?___xxtofl 0070                ?_init_adc 0070  
                ___fladd 01E8                  ___awmod 0F2B                  ___flmul 0480  
                ___flsub 0F07                  ___fltol 0F84                _HALF_STEP 00A0  
                __ptext1 0EB4                  __ptext2 00F7                  __ptext3 0EE5  
                __ptext4 003D                  __ptext5 0F84                  __ptext6 0F07  
                __ptext7 01E8                  __ptext8 0480                  __ptext9 0016  
                _readADC 0EE5               ??___xxtofl 0074         ___awmod@dividend 0072  
          SETSPEED@value 0053     end_of_initialization 07FC                _FULL_STEP 005D  
             ??_init_adc 0070              ___fladd@grs 007B            ___xxtofl@sign 0078  
            ___flmul@grs 002E        __size_of_SETSPEED 00F1               readADC@cha 0070  
    start_initialization 07E1            ??_INITSTEPPER 0070               init_fetch0 0003  
              __Umul8_16 0016              __pdataBANK0 005D              __pdataBANK1 00A0  
              ___fladd@a 0074                ___fladd@b 0070                ___flmul@a 0024  
              ___flmul@b 0020                ___flsub@a 003A                ___flsub@b 003E  
              ___latbits 0002            __pcstackBANK0 0020        __size_of___xxtofl 00BA  
    __end_of_INITSTEPPER 0EB4                __pnvBANK0 0065        __size_of_init_adc 000F  
               ?___fladd 0070                 ?___awmod 0070                 ?___flmul 0020  
               ?___flsub 003A                 ?___fltol 0042               ?__Umul8_16 0070  
               ?_readADC 0070                 _SETSPEED 00F7               _ADCON0bits 001F  
             _ADCON1bits 009F          SETSPEED@maxstep 0051              _INITSTEPPER 0EA9  
            ??__Umul8_16 0072         __size_of___fladd 0298         __size_of___awmod 0059  
       __size_of___flmul 0361         __size_of___flsub 0024         __size_of___fltol 007C  
       __size_of_readADC 0022                 ___xxtofl 003D                 __ptext10 0F2B  
               __ptext11 0EA9                 _init_adc 0EB4            __size_of_main 0012  
               init_ram0 0007   __Umul8_16@multiplicand 0070            ___fladd@signs 0078  
           ___fladd@aexp 0079             ___fladd@bexp 007A     __Umul8_16@multiplier 0078  
      __Umul8_16@product 0074  
